00000000  BC00B000C0        mov esp,0xc000b000
00000005  E924000000        jmp 0x2e
0000000A  0F0B              ud2
0000000C  0FB6D2            movzx edx,dl
0000000F  668904D5C05400C0  mov [edx*8-0x3fffab40],ax
00000017  C1E810            shr eax,byte 0x10
0000001A  668904D5C65400C0  mov [edx*8-0x3fffab3a],ax
00000022  C704D5C25400C008  mov dword [edx*8-0x3fffab3e],0x8e000008
         -00008E
0000002D  C3                ret
0000002E  55                push ebp
0000002F  BA002000C0        mov edx,0xc0002000
00000034  31C0              xor eax,eax
00000036  B974900000        mov ecx,0x9074
0000003B  89E5              mov ebp,esp
0000003D  57                push edi
0000003E  89D7              mov edi,edx
00000040  83EC50            sub esp,byte +0x50
00000043  F3AA              rep stosb
00000045  68C0000000        push dword 0xc0
0000004A  689A000000        push dword 0x9a
0000004F  68FFFFFF00        push dword 0xffffff
00000054  6A00              push byte +0x0
00000056  6A08              push byte +0x8
00000058  E813070000        call 0x770
0000005D  68C0000000        push dword 0xc0
00000062  6892000000        push dword 0x92
00000067  68FFFFFF00        push dword 0xffffff
0000006C  6A00              push byte +0x0
0000006E  6A10              push byte +0x10
00000070  E8FB060000        call 0x770
00000075  83C428            add esp,byte +0x28
00000078  6A40              push byte +0x40
0000007A  6889000000        push dword 0x89
0000007F  686B200000        push dword 0x206b
00000084  68403000C0        push dword 0xc0003040
00000089  6A18              push byte +0x18
0000008B  E8E0060000        call 0x770
00000090  6A00              push byte +0x0
00000092  6882000000        push dword 0x82
00000097  68FF030000        push dword 0x3ff
0000009C  68C05000C0        push dword 0xc00050c0
000000A1  6A20              push byte +0x20
000000A3  E8C8060000        call 0x770
000000A8  83C428            add esp,byte +0x28
000000AB  31C9              xor ecx,ecx
000000AD  89C8              mov eax,ecx
000000AF  89CA              mov edx,ecx
000000B1  C1E004            shl eax,byte 0x4
000000B4  05C00100C0        add eax,0xc00001c0
000000B9  E84EFFFFFF        call 0xc
000000BE  41                inc ecx
000000BF  83F920            cmp ecx,byte +0x20
000000C2  75E9              jnz 0xad
000000C4  B9A1000000        mov ecx,0xa1
000000C9  89CA              mov edx,ecx
000000CB  B8A00300C0        mov eax,0xc00003a0
000000D0  E837FFFFFF        call 0xc
000000D5  41                inc ecx
000000D6  81F9A7000000      cmp ecx,0xa7
000000DC  75EB              jnz 0xc9
000000DE  B9A8000000        mov ecx,0xa8
000000E3  89CA              mov edx,ecx
000000E5  B8A00300C0        mov eax,0xc00003a0
000000EA  E81DFFFFFF        call 0xc
000000EF  41                inc ecx
000000F0  81F9B0000000      cmp ecx,0xb0
000000F6  75EB              jnz 0xe3
000000F8  BAA0000000        mov edx,0xa0
000000FD  B8000500C0        mov eax,0xc0000500
00000102  E805FFFFFF        call 0xc
00000107  BAA7000000        mov edx,0xa7
0000010C  B8900300C0        mov eax,0xc0000390
00000111  E8F6FEFFFF        call 0xc
00000116  BAAF000000        mov edx,0xaf
0000011B  B8800300C0        mov eax,0xc0000380
00000120  E8E7FEFFFF        call 0xc
00000125  C705A83000C06C00  mov dword [dword 0xc00030a8],0x6c
         -0000
0000012F  0F011D201200C0    lidt [dword 0xc0001220]
00000136  0F0115281200C0    lgdt [dword 0xc0001228]
0000013D  66B82000          mov ax,0x20
00000141  0F00D0            lldt ax
00000144  66B81800          mov ax,0x18
00000148  0F00D8            ltr ax
0000014B  66B81000          mov ax,0x10
0000014F  8ED8              mov ds,eax
00000151  8EC0              mov es,eax
00000153  8ED0              mov ss,eax
00000155  6631C0            xor ax,ax
00000158  8EE0              mov fs,eax
0000015A  8EE8              mov gs,eax
0000015C  EA630100C00800    jmp 0x8:0xc0000163
00000163  B036              mov al,0x36
00000165  E643              out 0x43,al
00000167  B0B0              mov al,0xb0
00000169  E640              out 0x40,al
0000016B  B004              mov al,0x4
0000016D  E640              out 0x40,al
0000016F  E81D030000        call 0x491
00000174  8D7DAC            lea edi,[ebp-0x54]
00000177  31C0              xor eax,eax
00000179  B914000000        mov ecx,0x14
0000017E  F3AB              rep stosd
00000180  0FB70540000000    movzx eax,word [dword 0x40]
00000187  66C745AC410E      mov word [ebp-0x54],0xe41
0000018D  8945D8            mov [ebp-0x28],eax
00000190  0FB70542000000    movzx eax,word [dword 0x42]
00000197  C745E400080000    mov dword [ebp-0x1c],0x800
0000019E  8945DC            mov [ebp-0x24],eax
000001A1  8D45AC            lea eax,[ebp-0x54]
000001A4  50                push eax
000001A5  C745E800900000    mov dword [ebp-0x18],0x9000
000001AC  E84F040000        call 0x600
000001B1  EBFE              jmp short 0x1b1
000001B3  6690              xchg ax,ax
000001B5  6690              xchg ax,ax
000001B7  6690              xchg ax,ax
000001B9  6690              xchg ax,ax
000001BB  6690              xchg ax,ax
000001BD  6690              xchg ax,ax
000001BF  90                nop
000001C0  6A00              push byte +0x0
000001C2  E939010000        jmp 0x300
000001C7  90                nop
000001C8  90                nop
000001C9  90                nop
000001CA  90                nop
000001CB  90                nop
000001CC  90                nop
000001CD  90                nop
000001CE  90                nop
000001CF  90                nop
000001D0  6A01              push byte +0x1
000001D2  E929010000        jmp 0x300
000001D7  90                nop
000001D8  90                nop
000001D9  90                nop
000001DA  90                nop
000001DB  90                nop
000001DC  90                nop
000001DD  90                nop
000001DE  90                nop
000001DF  90                nop
000001E0  6A02              push byte +0x2
000001E2  E919010000        jmp 0x300
000001E7  90                nop
000001E8  90                nop
000001E9  90                nop
000001EA  90                nop
000001EB  90                nop
000001EC  90                nop
000001ED  90                nop
000001EE  90                nop
000001EF  90                nop
000001F0  6A03              push byte +0x3
000001F2  E909010000        jmp 0x300
000001F7  90                nop
000001F8  90                nop
000001F9  90                nop
000001FA  90                nop
000001FB  90                nop
000001FC  90                nop
000001FD  90                nop
000001FE  90                nop
000001FF  90                nop
00000200  6A04              push byte +0x4
00000202  E9F9000000        jmp 0x300
00000207  90                nop
00000208  90                nop
00000209  90                nop
0000020A  90                nop
0000020B  90                nop
0000020C  90                nop
0000020D  90                nop
0000020E  90                nop
0000020F  90                nop
00000210  6A05              push byte +0x5
00000212  E9E9000000        jmp 0x300
00000217  90                nop
00000218  90                nop
00000219  90                nop
0000021A  90                nop
0000021B  90                nop
0000021C  90                nop
0000021D  90                nop
0000021E  90                nop
0000021F  90                nop
00000220  6A06              push byte +0x6
00000222  E9D9000000        jmp 0x300
00000227  90                nop
00000228  90                nop
00000229  90                nop
0000022A  90                nop
0000022B  90                nop
0000022C  90                nop
0000022D  90                nop
0000022E  90                nop
0000022F  90                nop
00000230  6A07              push byte +0x7
00000232  E9C9000000        jmp 0x300
00000237  90                nop
00000238  90                nop
00000239  90                nop
0000023A  90                nop
0000023B  90                nop
0000023C  90                nop
0000023D  90                nop
0000023E  90                nop
0000023F  90                nop
00000240  368F05200300C0    pop dword [dword ss:0xc0000320]
00000247  6A08              push byte +0x8
00000249  E9B2000000        jmp 0x300
0000024E  90                nop
0000024F  90                nop
00000250  6A09              push byte +0x9
00000252  E9A9000000        jmp 0x300
00000257  90                nop
00000258  90                nop
00000259  90                nop
0000025A  90                nop
0000025B  90                nop
0000025C  90                nop
0000025D  90                nop
0000025E  90                nop
0000025F  90                nop
00000260  368F05200300C0    pop dword [dword ss:0xc0000320]
00000267  6A0A              push byte +0xa
00000269  E992000000        jmp 0x300
0000026E  90                nop
0000026F  90                nop
00000270  368F05200300C0    pop dword [dword ss:0xc0000320]
00000277  6A0B              push byte +0xb
00000279  E982000000        jmp 0x300
0000027E  90                nop
0000027F  90                nop
00000280  368F05200300C0    pop dword [dword ss:0xc0000320]
00000287  6A0C              push byte +0xc
00000289  EB75              jmp short 0x300
0000028B  90                nop
0000028C  90                nop
0000028D  90                nop
0000028E  90                nop
0000028F  90                nop
00000290  368F05200300C0    pop dword [dword ss:0xc0000320]
00000297  6A0D              push byte +0xd
00000299  EB65              jmp short 0x300
0000029B  90                nop
0000029C  90                nop
0000029D  90                nop
0000029E  90                nop
0000029F  90                nop
000002A0  368F05200300C0    pop dword [dword ss:0xc0000320]
000002A7  6A0E              push byte +0xe
000002A9  EB55              jmp short 0x300
000002AB  90                nop
000002AC  90                nop
000002AD  90                nop
000002AE  90                nop
000002AF  90                nop
000002B0  6A0F              push byte +0xf
000002B2  EB4C              jmp short 0x300
000002B4  90                nop
000002B5  90                nop
000002B6  90                nop
000002B7  90                nop
000002B8  90                nop
000002B9  90                nop
000002BA  90                nop
000002BB  90                nop
000002BC  90                nop
000002BD  90                nop
000002BE  90                nop
000002BF  90                nop
000002C0  6A10              push byte +0x10
000002C2  EB3C              jmp short 0x300
000002C4  90                nop
000002C5  90                nop
000002C6  90                nop
000002C7  90                nop
000002C8  90                nop
000002C9  90                nop
000002CA  90                nop
000002CB  90                nop
000002CC  90                nop
000002CD  90                nop
000002CE  90                nop
000002CF  90                nop
000002D0  368F05200300C0    pop dword [dword ss:0xc0000320]
000002D7  6A11              push byte +0x11
000002D9  EB25              jmp short 0x300
000002DB  90                nop
000002DC  90                nop
000002DD  90                nop
000002DE  90                nop
000002DF  90                nop
000002E0  6A12              push byte +0x12
000002E2  EB1C              jmp short 0x300
000002E4  90                nop
000002E5  90                nop
000002E6  90                nop
000002E7  90                nop
000002E8  90                nop
000002E9  90                nop
000002EA  90                nop
000002EB  90                nop
000002EC  90                nop
000002ED  90                nop
000002EE  90                nop
000002EF  90                nop
000002F0  6A13              push byte +0x13
000002F2  EB0C              jmp short 0x300
000002F4  90                nop
000002F5  90                nop
000002F6  90                nop
000002F7  90                nop
000002F8  90                nop
000002F9  90                nop
000002FA  90                nop
000002FB  90                nop
000002FC  90                nop
000002FD  90                nop
000002FE  90                nop
000002FF  90                nop
00000300  89E2              mov edx,esp
00000302  8B1D200300C0      mov ebx,[dword 0xc0000320] ; HERE!!!!
00000308  FB                sti
00000309  FF149D240300C0    call [ebx*4-0x3ffffcdc]
00000310  58                pop eax
00000311  5B                pop ebx
00000312  59                pop ecx
00000313  5A                pop edx
00000314  5E                pop esi
00000315  5F                pop edi
00000316  5D                pop ebp
00000317  07                pop es
00000318  1F                pop ds
00000319  0FA1              pop fs
0000031B  0FA9              pop gs
0000031D  CF                iret
0000031E  90                nop
0000031F  90                nop
00000320  0000              add [eax],al
00000322  0000              add [eax],al
00000324  0000              add [eax],al
00000326  0000              add [eax],al
00000328  0000              add [eax],al
0000032A  0000              add [eax],al
0000032C  0000              add [eax],al
0000032E  0000              add [eax],al
00000330  0000              add [eax],al
00000332  0000              add [eax],al
00000334  0000              add [eax],al
00000336  0000              add [eax],al
00000338  0000              add [eax],al
0000033A  0000              add [eax],al
0000033C  0000              add [eax],al
0000033E  0000              add [eax],al
00000340  0000              add [eax],al
00000342  0000              add [eax],al
00000344  0000              add [eax],al
00000346  0000              add [eax],al
00000348  0000              add [eax],al
0000034A  0000              add [eax],al
0000034C  0000              add [eax],al
0000034E  0000              add [eax],al
00000350  0000              add [eax],al
00000352  0000              add [eax],al
00000354  0000              add [eax],al
00000356  0000              add [eax],al
00000358  0000              add [eax],al
0000035A  0000              add [eax],al
0000035C  0000              add [eax],al
0000035E  0000              add [eax],al
00000360  0000              add [eax],al
00000362  0000              add [eax],al
00000364  0000              add [eax],al
00000366  0000              add [eax],al
00000368  0000              add [eax],al
0000036A  0000              add [eax],al
0000036C  0000              add [eax],al
0000036E  0000              add [eax],al
00000370  0000              add [eax],al
00000372  0000              add [eax],al
00000374  90                nop
00000375  90                nop
00000376  90                nop
00000377  90                nop
00000378  90                nop
00000379  90                nop
0000037A  90                nop
0000037B  90                nop
0000037C  90                nop
0000037D  90                nop
0000037E  90                nop
0000037F  90                nop
00000380  36C605200400C00F  mov byte [dword ss:0xc0000420],0xf
00000388  EB16              jmp short 0x3a0
0000038A  90                nop
0000038B  90                nop
0000038C  90                nop
0000038D  90                nop
0000038E  90                nop
0000038F  90                nop
00000390  36C605200400C007  mov byte [dword ss:0xc0000420],0x7
00000398  EB06              jmp short 0x3a0
0000039A  90                nop
0000039B  90                nop
0000039C  90                nop
0000039D  90                nop
0000039E  90                nop
0000039F  90                nop
000003A0  0FA8              push gs
000003A2  0FA0              push fs
000003A4  1E                push ds
000003A5  06                push es
000003A6  55                push ebp
000003A7  57                push edi
000003A8  56                push esi
000003A9  52                push edx
000003AA  51                push ecx
000003AB  53                push ebx
000003AC  50                push eax
000003AD  E8BE000000        call 0x470
000003B2  85C0              test eax,eax
000003B4  7526              jnz 0x3dc
000003B6  0FBCD8            bsf ebx,eax
000003B9  833C85C00500C000  cmp dword [eax*4-0x3ffffa40],byte +0x0
000003C1  740E              jz 0x3d1
000003C3  89E0              mov eax,esp
000003C5  FF149DC00500C0    call [ebx*4-0x3ffffa40]
000003CC  F6C307            test bl,0x7
000003CF  741F              jz 0x3f0
000003D1  89C2              mov edx,eax
000003D3  9A000000003800    call 0x38:0x0
000003DA  EB34              jmp short 0x410
000003DC  803D200400C00F    cmp byte [dword 0xc0000420],0xf
000003E3  752B              jnz 0x410
000003E5  90                nop
000003E6  90                nop
000003E7  90                nop
000003E8  90                nop
000003E9  90                nop
000003EA  90                nop
000003EB  90                nop
000003EC  90                nop
000003ED  90                nop
000003EE  90                nop
000003EF  90                nop
000003F0  B020              mov al,0x20
000003F2  E6A0              out 0xa0,al
000003F4  EB00              jmp short 0x3f6
000003F6  90                nop
000003F7  90                nop
000003F8  90                nop
000003F9  90                nop
000003FA  90                nop
000003FB  90                nop
000003FC  90                nop
000003FD  90                nop
000003FE  90                nop
000003FF  90                nop
00000400  B020              mov al,0x20
00000402  E620              out 0x20,al
00000404  EB00              jmp short 0x406
00000406  90                nop
00000407  90                nop
00000408  90                nop
00000409  90                nop
0000040A  90                nop
0000040B  90                nop
0000040C  90                nop
0000040D  90                nop
0000040E  90                nop
0000040F  90                nop
00000410  58                pop eax
00000411  5B                pop ebx
00000412  59                pop ecx
00000413  5A                pop edx
00000414  5E                pop esi
00000415  5F                pop edi
00000416  5D                pop ebp
00000417  07                pop es
00000418  1F                pop ds
00000419  0FA1              pop fs
0000041B  0FA9              pop gs
0000041D  CF                iret
0000041E  90                nop
0000041F  90                nop
00000420  0000              add [eax],al
00000422  0000              add [eax],al
00000424  90                nop
00000425  90                nop
00000426  90                nop
00000427  90                nop
00000428  90                nop
00000429  90                nop
0000042A  90                nop
0000042B  90                nop
0000042C  90                nop
0000042D  90                nop
0000042E  90                nop
0000042F  90                nop
00000430  9C                pushf
00000431  53                push ebx
00000432  FA                cli
00000433  8B44240C          mov eax,[esp+0xc]
00000437  86E0              xchg ah,al
00000439  89C3              mov ebx,eax
0000043B  25FF000000        and eax,0xff
00000440  E621              out 0x21,al
00000442  EB00              jmp short 0x444
00000444  C1EB08            shr ebx,byte 0x8
00000447  89D8              mov eax,ebx
00000449  E6A1              out 0xa1,al
0000044B  EB00              jmp short 0x44d
0000044D  5B                pop ebx
0000044E  9D                popf
0000044F  C3                ret
00000450  9C                pushf
00000451  53                push ebx
00000452  FA                cli
00000453  31C0              xor eax,eax
00000455  E421              in al,0x21
00000457  EB00              jmp short 0x459
00000459  89C3              mov ebx,eax
0000045B  E4A1              in al,0xa1
0000045D  EB00              jmp short 0x45f
0000045F  C1E308            shl ebx,byte 0x8
00000462  8D0418            lea eax,[eax+ebx]
00000465  5B                pop ebx
00000466  9D                popf
00000467  C3                ret
00000468  90                nop
00000469  90                nop
0000046A  90                nop
0000046B  90                nop
0000046C  90                nop
0000046D  90                nop
0000046E  90                nop
0000046F  90                nop
00000470  9C                pushf
00000471  53                push ebx
00000472  FA                cli
00000473  31C0              xor eax,eax
00000475  B00A              mov al,0xa
00000477  E620              out 0x20,al
00000479  EB00              jmp short 0x47b
0000047B  E6A0              out 0xa0,al
0000047D  EB00              jmp short 0x47f
0000047F  E420              in al,0x20
00000481  EB00              jmp short 0x483
00000483  89C3              mov ebx,eax
00000485  E4A0              in al,0xa0
00000487  EB00              jmp short 0x489
00000489  C1E308            shl ebx,byte 0x8
0000048C  09D8              or eax,ebx
0000048E  5B                pop ebx
0000048F  9D                popf
00000490  C3                ret
00000491  E8BAFFFFFF        call 0x450
00000496  50                push eax
00000497  B011              mov al,0x11
00000499  E620              out 0x20,al
0000049B  EB00              jmp short 0x49d
0000049D  E6A0              out 0xa0,al
0000049F  EB00              jmp short 0x4a1
000004A1  B0A0              mov al,0xa0
000004A3  E621              out 0x21,al
000004A5  EB00              jmp short 0x4a7
000004A7  B0A8              mov al,0xa8
000004A9  E6A1              out 0xa1,al
000004AB  EB00              jmp short 0x4ad
000004AD  B004              mov al,0x4
000004AF  E621              out 0x21,al
000004B1  EB00              jmp short 0x4b3
000004B3  B002              mov al,0x2
000004B5  E6A1              out 0xa1,al
000004B7  EB00              jmp short 0x4b9
000004B9  B001              mov al,0x1
000004BB  E621              out 0x21,al
000004BD  EB00              jmp short 0x4bf
000004BF  B009              mov al,0x9
000004C1  E6A1              out 0xa1,al
000004C3  EB00              jmp short 0x4c5
000004C5  E866FFFFFF        call 0x430
000004CA  83C404            add esp,byte +0x4
000004CD  C3                ret
000004CE  90                nop
000004CF  90                nop
000004D0  90                nop
000004D1  90                nop
000004D2  90                nop
000004D3  90                nop
000004D4  90                nop
000004D5  90                nop
000004D6  90                nop
000004D7  90                nop
000004D8  90                nop
000004D9  90                nop
000004DA  90                nop
000004DB  90                nop
000004DC  90                nop
000004DD  90                nop
000004DE  90                nop
000004DF  90                nop
000004E0  90                nop
000004E1  90                nop
000004E2  90                nop
000004E3  90                nop
000004E4  90                nop
000004E5  90                nop
000004E6  90                nop
000004E7  90                nop
000004E8  90                nop
000004E9  90                nop
000004EA  90                nop
000004EB  90                nop
000004EC  90                nop
000004ED  90                nop
000004EE  90                nop
000004EF  90                nop
000004F0  90                nop
000004F1  90                nop
000004F2  90                nop
000004F3  90                nop
000004F4  90                nop
000004F5  90                nop
000004F6  90                nop
000004F7  90                nop
000004F8  90                nop
000004F9  90                nop
000004FA  90                nop
000004FB  90                nop
000004FC  90                nop
000004FD  90                nop
000004FE  90                nop
000004FF  90                nop
00000500  50                push eax
00000501  B020              mov al,0x20
00000503  E620              out 0x20,al
00000505  58                pop eax
00000506  CF                iret
00000507  36F7442404030000  test dword [ss:esp+0x4],0x3
         -00
00000510  740C              jz 0x51e
00000512  368B5C2404        mov ebx,[ss:esp+0x4]
00000517  B8BEBAFECA        mov eax,0xcafebabe
0000051C  EBFE              jmp short 0x51c
0000051E  53                push ebx
0000051F  BB10000000        mov ebx,0x10
00000524  8EDB              mov ds,ebx
00000526  8EC3              mov es,ebx
00000528  89E3              mov ebx,esp
0000052A  81E300F0FFFF      and ebx,0xfffff000
00000530  8903              mov [ebx],eax
00000532  894B08            mov [ebx+0x8],ecx
00000535  89530C            mov [ebx+0xc],edx
00000538  897310            mov [ebx+0x10],esi
0000053B  897B14            mov [ebx+0x14],edi
0000053E  896B18            mov [ebx+0x18],ebp
00000541  896338            mov [ebx+0x38],esp
00000544  8343380C          add dword [ebx+0x38],byte +0xc
00000548  8F4304            pop dword [ebx+0x4]
0000054B  F7433003000000    test dword [ebx+0x30],0x3
00000552  753E              jnz 0x592
00000554  FC                cld
00000555  89E6              mov esi,esp
00000557  8D7B38            lea edi,[ebx+0x38]
0000055A  B904000000        mov ecx,0x4
0000055F  F3A5              rep movsd
00000561  8B5B50            mov ebx,[ebx+0x50]
00000564  8B6338            mov esp,[ebx+0x38]
00000567  83EC0C            sub esp,byte +0xc
0000056A  FF7334            push dword [ebx+0x34]
0000056D  FF7330            push dword [ebx+0x30]
00000570  FF732C            push dword [ebx+0x2c]
00000573  B820000000        mov eax,0x20
00000578  E620              out 0x20,al
0000057A  8B03              mov eax,[ebx]
0000057C  8B4B08            mov ecx,[ebx+0x8]
0000057F  8B530C            mov edx,[ebx+0xc]
00000582  8B7310            mov esi,[ebx+0x10]
00000585  8B7B14            mov edi,[ebx+0x14]
00000588  8B6B18            mov ebp,[ebx+0x18]
0000058B  8B5B04            mov ebx,[ebx+0x4]
0000058E  6687DB            xchg bx,bx
00000591  CF                iret
00000592  B8EFBEADDE        mov eax,0xdeadbeef
00000597  EBFE              jmp short 0x597
00000599  0FA8              push gs
0000059B  0FA0              push fs
0000059D  1E                push ds
0000059E  06                push es
0000059F  55                push ebp
000005A0  57                push edi
000005A1  56                push esi
000005A2  52                push edx
000005A3  51                push ecx
000005A4  53                push ebx
000005A5  50                push eax
000005A6  58                pop eax
000005A7  5B                pop ebx
000005A8  59                pop ecx
000005A9  5A                pop edx
000005AA  5E                pop esi
000005AB  5F                pop edi
000005AC  5D                pop ebp
000005AD  07                pop es
000005AE  1F                pop ds
000005AF  0FA1              pop fs
000005B1  0FA9              pop gs
000005B3  CF                iret
000005B4  90                nop
000005B5  90                nop
000005B6  90                nop
000005B7  90                nop
000005B8  90                nop
000005B9  90                nop
000005BA  90                nop
000005BB  90                nop
000005BC  90                nop
000005BD  90                nop
000005BE  90                nop
000005BF  90                nop
000005C0  000500C00000      add [dword 0xc000],al
000005C6  0000              add [eax],al
000005C8  0000              add [eax],al
000005CA  0000              add [eax],al
000005CC  0000              add [eax],al
000005CE  0000              add [eax],al
000005D0  0000              add [eax],al
000005D2  0000              add [eax],al
000005D4  0000              add [eax],al
000005D6  0000              add [eax],al
000005D8  0000              add [eax],al
000005DA  0000              add [eax],al
000005DC  0000              add [eax],al
000005DE  0000              add [eax],al
000005E0  0000              add [eax],al
000005E2  0000              add [eax],al
000005E4  0000              add [eax],al
000005E6  0000              add [eax],al
000005E8  0000              add [eax],al
000005EA  0000              add [eax],al
000005EC  0000              add [eax],al
000005EE  0000              add [eax],al
000005F0  0000              add [eax],al
000005F2  0000              add [eax],al
000005F4  0000              add [eax],al
000005F6  0000              add [eax],al
000005F8  0000              add [eax],al
000005FA  0000              add [eax],al
000005FC  0000              add [eax],al
000005FE  0000              add [eax],al
00000600  6687DB            xchg bx,bx
00000603  FF053C1200C0      inc dword [dword 0xc000123c]
00000609  891D0C2000C0      mov [dword 0xc000200c],ebx
0000060F  8935042000C0      mov [dword 0xc0002004],esi
00000615  893D082000C0      mov [dword 0xc0002008],edi
0000061B  892D002000C0      mov [dword 0xc0002000],ebp
00000621  8B5C2404          mov ebx,[esp+0x4]
00000625  891D142000C0      mov [dword 0xc0002014],ebx
0000062B  8B7B3C            mov edi,[ebx+0x3c]
0000062E  C1E704            shl edi,byte 0x4
00000631  037B38            add edi,[ebx+0x38]
00000634  FD                std
00000635  0FB74334          movzx eax,word [ebx+0x34]
00000639  66AB              stosw
0000063B  0FB74330          movzx eax,word [ebx+0x30]
0000063F  66AB              stosw
00000641  0FB7432C          movzx eax,word [ebx+0x2c]
00000645  66AB              stosw
00000647  83433806          add dword [ebx+0x38],byte +0x6
0000064B  FF05401200C0      inc dword [dword 0xc0001240]
00000651  66C705483000C010  mov word [dword 0xc0003048],0x10
         -00
0000065A  8925443000C0      mov [dword 0xc0003044],esp
00000660  FF35580300C0      push dword [dword 0xc0000358]
00000666  FF734C            push dword [ebx+0x4c]
00000669  FF7348            push dword [ebx+0x48]
0000066C  FF7344            push dword [ebx+0x44]
0000066F  FF7340            push dword [ebx+0x40]
00000672  FF733C            push dword [ebx+0x3c]
00000675  FF7338            push dword [ebx+0x38]
00000678  FF7334            push dword [ebx+0x34]
0000067B  810C2400300200    or dword [esp],0x23000
00000682  FF7330            push dword [ebx+0x30]
00000685  FF732C            push dword [ebx+0x2c]
00000688  8B03              mov eax,[ebx]
0000068A  8B4B08            mov ecx,[ebx+0x8]
0000068D  8B530C            mov edx,[ebx+0xc]
00000690  8B7310            mov esi,[ebx+0x10]
00000693  8B7B14            mov edi,[ebx+0x14]
00000696  8B6B18            mov ebp,[ebx+0x18]
00000699  8B5B04            mov ebx,[ebx+0x4]
0000069C  CF                iret
0000069D  8F05580300C0      pop dword [dword 0xc0000358]
000006A3  FF0D401200C0      dec dword [dword 0xc0001240]
000006A9  8B1D0C2000C0      mov ebx,[dword 0xc000200c]
000006AF  8B35002000C0      mov esi,[dword 0xc0002000]
000006B5  8B3D002000C0      mov edi,[dword 0xc0002000]
000006BB  8B2D002000C0      mov ebp,[dword 0xc0002000]
000006C1  C3                ret
000006C2  C3                ret
000006C3  8B582C            mov ebx,[eax+0x2c]
000006C6  0FB7442430        movzx eax,word [esp+0x30]
000006CB  C1E004            shl eax,byte 0x4
000006CE  01C3              add ebx,eax
000006D0  0FB603            movzx eax,byte [ebx]
000006D3  3CCD              cmp al,0xcd
000006D5  753C              jnz 0x713
000006D7  0FB64301          movzx eax,byte [ebx+0x1]
000006DB  8902              mov [edx],eax
000006DD  8B7A3C            mov edi,[edx+0x3c]
000006E0  C1E704            shl edi,byte 0x4
000006E3  037F38            add edi,[edi+0x38]
000006E6  FD                std
000006E7  0FB74734          movzx eax,word [edi+0x34]
000006EB  66AB              stosw
000006ED  0FB74730          movzx eax,word [edi+0x30]
000006F1  66AB              stosw
000006F3  0FB7472C          movzx eax,word [edi+0x2c]
000006F7  83C002            add eax,byte +0x2
000006FA  66AB              stosw
000006FC  66836F3806        sub word [edi+0x38],byte +0x6
00000701  FC                cld
00000702  89D6              mov esi,edx
00000704  8B3D142000C0      mov edi,[dword 0xc0002014]
0000070A  B914000000        mov ecx,0x14
0000070F  F3A5              rep movsd
00000711  EB0A              jmp short 0x71d
00000713  3CCF              cmp al,0xcf
00000715  7504              jnz 0x71b
00000717  EBFE              jmp short 0x717
00000719  EB02              jmp short 0x71d
0000071B  EBFE              jmp short 0x71b
0000071D  C3                ret
0000071E  55                push ebp
0000071F  B8F8FF0000        mov eax,0xfff8
00000724  89E5              mov ebp,esp
00000726  8B550C            mov edx,[ebp+0xc]
00000729  234508            and eax,[ebp+0x8]
0000072C  5D                pop ebp
0000072D  89D1              mov ecx,edx
0000072F  668990023000C0    mov [eax-0x3fffcffe],dx
00000736  C1EA18            shr edx,byte 0x18
00000739  C1E910            shr ecx,byte 0x10
0000073C  8890073000C0      mov [eax-0x3fffcff9],dl
00000742  8888043000C0      mov [eax-0x3fffcffc],cl
00000748  C3                ret
00000749  55                push ebp
0000074A  89E5              mov ebp,esp
0000074C  8B4508            mov eax,[ebp+0x8]
0000074F  8B550C            mov edx,[ebp+0xc]
00000752  5D                pop ebp
00000753  66C1E803          shr ax,byte 0x3
00000757  0FB7C0            movzx eax,ax
0000075A  668914C5003000C0  mov [eax*8-0x3fffd000],dx
00000762  C1EA10            shr edx,byte 0x10
00000765  83E20F            and edx,byte +0xf
00000768  0814C5063000C0    or [eax*8-0x3fffcffa],dl
0000076F  C3                ret
00000770  55                push ebp
00000771  89E5              mov ebp,esp
00000773  53                push ebx
00000774  8B4D08            mov ecx,[ebp+0x8]
00000777  8B5518            mov edx,[ebp+0x18]
0000077A  8B5D0C            mov ebx,[ebp+0xc]
0000077D  89C8              mov eax,ecx
0000077F  0FB7C9            movzx ecx,cx
00000782  66C1E803          shr ax,byte 0x3
00000786  0FB7C0            movzx eax,ax
00000789  8D04C5003000C0    lea eax,[eax*8-0x3fffd000]
00000790  885006            mov [eax+0x6],dl
00000793  8B5514            mov edx,[ebp+0x14]
00000796  885005            mov [eax+0x5],dl
00000799  FF7510            push dword [ebp+0x10]
0000079C  51                push ecx
0000079D  E8A7FFFFFF        call 0x749
000007A2  895D0C            mov [ebp+0xc],ebx
000007A5  58                pop eax
000007A6  8B5DFC            mov ebx,[ebp-0x4]
000007A9  5A                pop edx
000007AA  894D08            mov [ebp+0x8],ecx
000007AD  C9                leave
000007AE  E96BFFFFFF        jmp 0x71e
000007B3  6690              xchg ax,ax
000007B5  6690              xchg ax,ax
000007B7  6690              xchg ax,ax
000007B9  6690              xchg ax,ax
000007BB  6690              xchg ax,ax
000007BD  6690              xchg ax,ax
000007BF  90                nop
000007C0  50                push eax
000007C1  53                push ebx
000007C2  51                push ecx
000007C3  56                push esi
000007C4  57                push edi
000007C5  FC                cld
000007C6  89C8              mov eax,ecx
000007C8  C1E902            shr ecx,byte 0x2
000007CB  F3A5              rep movsd
000007CD  89C1              mov ecx,eax
000007CF  83E103            and ecx,byte +0x3
000007D2  F3A4              rep movsb
000007D4  5F                pop edi
000007D5  5E                pop esi
000007D6  59                pop ecx
000007D7  5B                pop ebx
000007D8  58                pop eax
000007D9  C3                ret
000007DA  C3                ret
000007DB  8D742600          lea esi,[esi+0x0]
000007DF  90                nop
000007E0  50                push eax
000007E1  53                push ebx
000007E2  51                push ecx
000007E3  57                push edi
000007E4  FC                cld
000007E5  69C001010101      imul eax,eax,dword 0x1010101
000007EB  89CB              mov ebx,ecx
000007ED  C1E902            shr ecx,byte 0x2
000007F0  F3AB              rep stosd
000007F2  89D9              mov ecx,ebx
000007F4  83E103            and ecx,byte +0x3
000007F7  F3AA              rep stosb
000007F9  5F                pop edi
000007FA  59                pop ecx
000007FB  5B                pop ebx
000007FC  58                pop eax
000007FD  C3                ret
000007FE  C3                ret
000007FF  90                nop
00000800  50                push eax
00000801  53                push ebx
00000802  51                push ecx
00000803  FC                cld
00000804  31C0              xor eax,eax
00000806  89CB              mov ebx,ecx
00000808  C1E902            shr ecx,byte 0x2
0000080B  F3AB              rep stosd
0000080D  89D9              mov ecx,ebx
0000080F  83E103            and ecx,byte +0x3
00000812  F3AA              rep stosb
00000814  51                push ecx
00000815  53                push ebx
00000816  50                push eax
00000817  C3                ret
00000818  C3                ret
00000819  8DB42600000000    lea esi,[esi+0x0]
00000820  50                push eax
00000821  53                push ebx
00000822  51                push ecx
00000823  57                push edi
00000824  FC                cld
00000825  69C001000100      imul eax,eax,dword 0x10001
0000082B  89CB              mov ebx,ecx
0000082D  D1E9              shr ecx,1
0000082F  F3AB              rep stosd
00000831  83E301            and ebx,byte +0x1
00000834  7406              jz 0x83c
00000836  C70700000000      mov dword [edi],0x0
0000083C  5F                pop edi
0000083D  59                pop ecx
0000083E  5B                pop ebx
0000083F  58                pop eax
00000840  C3                ret
00000841  C3                ret
00000842  55                push ebp
00000843  89E5              mov ebp,esp
00000845  57                push edi
00000846  56                push esi
00000847  53                push ebx
00000848  83EC0C            sub esp,byte +0xc
0000084B  8B7D08            mov edi,[ebp+0x8]
0000084E  8B4D0C            mov ecx,[ebp+0xc]
00000851  85FF              test edi,edi
00000853  7510              jnz 0x865
00000855  C7450830000000    mov dword [ebp+0x8],0x30
0000085C  8D65F4            lea esp,[ebp-0xc]
0000085F  5B                pop ebx
00000860  5E                pop esi
00000861  5F                pop edi
00000862  5D                pop ebp
00000863  FFE1              jmp ecx
00000865  C745EC0A000000    mov dword [ebp-0x14],0xa
0000086C  31F6              xor esi,esi
0000086E  BB0A000000        mov ebx,0xa
00000873  C745F000CA9A3B    mov dword [ebp-0x10],0x3b9aca00
0000087A  31D2              xor edx,edx
0000087C  89F8              mov eax,edi
0000087E  F775F0            div dword [ebp-0x10]
00000881  31D2              xor edx,edx
00000883  F7F3              div ebx
00000885  89F0              mov eax,esi
00000887  09D0              or eax,edx
00000889  7419              jz 0x8a4
0000088B  85D2              test edx,edx
0000088D  B801000000        mov eax,0x1
00000892  894DE8            mov [ebp-0x18],ecx
00000895  0F45F0            cmovnz esi,eax
00000898  8D4230            lea eax,[edx+0x30]
0000089B  50                push eax
0000089C  FFD1              call ecx
0000089E  8B4DE8            mov ecx,[ebp-0x18]
000008A1  58                pop eax
000008A2  EB02              jmp short 0x8a6
000008A4  31F6              xor esi,esi
000008A6  8B45F0            mov eax,[ebp-0x10]
000008A9  99                cdq
000008AA  F7FB              idiv ebx
000008AC  FF4DEC            dec dword [ebp-0x14]
000008AF  8945F0            mov [ebp-0x10],eax
000008B2  75C6              jnz 0x87a
000008B4  8D65F4            lea esp,[ebp-0xc]
000008B7  5B                pop ebx
000008B8  5E                pop esi
000008B9  5F                pop edi
000008BA  5D                pop ebp
000008BB  C3                ret
000008BC  55                push ebp
000008BD  89E5              mov ebp,esp
000008BF  53                push ebx
000008C0  BB1C000000        mov ebx,0x1c
000008C5  8B4508            mov eax,[ebp+0x8]
000008C8  89D9              mov ecx,ebx
000008CA  83EB04            sub ebx,byte +0x4
000008CD  D3E8              shr eax,cl
000008CF  83E00F            and eax,byte +0xf
000008D2  0FBE80640900C0    movsx eax,byte [eax-0x3ffff69c]
000008D9  50                push eax
000008DA  FF550C            call [ebp+0xc]
000008DD  58                pop eax
000008DE  83FBFC            cmp ebx,byte -0x4
000008E1  75E2              jnz 0x8c5
000008E3  8B5DFC            mov ebx,[ebp-0x4]
000008E6  C9                leave
000008E7  C3                ret
000008E8  55                push ebp
000008E9  89E5              mov ebp,esp
000008EB  57                push edi
000008EC  31FF              xor edi,edi
000008EE  56                push esi
000008EF  53                push ebx
000008F0  8D5D10            lea ebx,[ebp+0x10]
000008F3  8B450C            mov eax,[ebp+0xc]
000008F6  0FBE1438          movsx edx,byte [eax+edi]
000008FA  84D2              test dl,dl
000008FC  7452              jz 0x950
000008FE  80FA25            cmp dl,0x25
00000901  7545              jnz 0x948
00000903  8B450C            mov eax,[ebp+0xc]
00000906  8D7701            lea esi,[edi+0x1]
00000909  8A543801          mov dl,[eax+edi+0x1]
0000090D  80FA75            cmp dl,0x75
00000910  740E              jz 0x920
00000912  80FA78            cmp dl,0x78
00000915  741C              jz 0x933
00000917  80FA25            cmp dl,0x25
0000091A  7531              jnz 0x94d
0000091C  6A25              push byte +0x25
0000091E  EB29              jmp short 0x949
00000920  FF7508            push dword [ebp+0x8]
00000923  8D7304            lea esi,[ebx+0x4]
00000926  FF33              push dword [ebx]
00000928  E815FFFFFF        call 0x842
0000092D  5B                pop ebx
0000092E  89F3              mov ebx,esi
00000930  58                pop eax
00000931  EB1A              jmp short 0x94d
00000933  FF7508            push dword [ebp+0x8]
00000936  8D7B04            lea edi,[ebx+0x4]
00000939  FF33              push dword [ebx]
0000093B  89FB              mov ebx,edi
0000093D  89F7              mov edi,esi
0000093F  E878FFFFFF        call 0x8bc
00000944  5A                pop edx
00000945  59                pop ecx
00000946  EB05              jmp short 0x94d
00000948  52                push edx
00000949  FF5508            call [ebp+0x8]
0000094C  58                pop eax
0000094D  47                inc edi
0000094E  EBA3              jmp short 0x8f3
00000950  8D65F4            lea esp,[ebp-0xc]
00000953  5B                pop ebx
00000954  5E                pop esi
00000955  5F                pop edi
00000956  5D                pop ebp
00000957  C3                ret
00000958  55                push ebp
00000959  89E5              mov ebp,esp
0000095B  8B4508            mov eax,[ebp+0x8]
0000095E  E6E9              out 0xe9,al
00000960  5D                pop ebp
00000961  C3                ret
00000962  6690              xchg ax,ax
00000964  3031              xor [ecx],dh
00000966  3233              xor dh,[ebx]
00000968  3435              xor al,0x35
0000096A  3637              ss aaa
0000096C  3839              cmp [ecx],bh
0000096E  41                inc ecx
0000096F  42                inc edx
00000970  43                inc ebx
00000971  44                inc esp
00000972  45                inc ebp
00000973  46                inc esi
00000974  6690              xchg ax,ax
00000976  6690              xchg ax,ax
00000978  6690              xchg ax,ax
0000097A  6690              xchg ax,ax
0000097C  6690              xchg ax,ax
0000097E  6690              xchg ax,ax
00000980  6690              xchg ax,ax
00000982  6690              xchg ax,ax
00000984  6690              xchg ax,ax
00000986  6690              xchg ax,ax
00000988  6690              xchg ax,ax
0000098A  6690              xchg ax,ax
0000098C  6690              xchg ax,ax
0000098E  6690              xchg ax,ax
00000990  6690              xchg ax,ax
00000992  6690              xchg ax,ax
00000994  6690              xchg ax,ax
00000996  6690              xchg ax,ax
00000998  6690              xchg ax,ax
0000099A  6690              xchg ax,ax
0000099C  6690              xchg ax,ax
0000099E  6690              xchg ax,ax
000009A0  6690              xchg ax,ax
000009A2  6690              xchg ax,ax
000009A4  6690              xchg ax,ax
000009A6  6690              xchg ax,ax
000009A8  6690              xchg ax,ax
000009AA  6690              xchg ax,ax
000009AC  6690              xchg ax,ax
000009AE  6690              xchg ax,ax
000009B0  6690              xchg ax,ax
000009B2  6690              xchg ax,ax
000009B4  6690              xchg ax,ax
000009B6  6690              xchg ax,ax
000009B8  6690              xchg ax,ax
000009BA  6690              xchg ax,ax
000009BC  6690              xchg ax,ax
000009BE  6690              xchg ax,ax
000009C0  6690              xchg ax,ax
000009C2  6690              xchg ax,ax
000009C4  6690              xchg ax,ax
000009C6  6690              xchg ax,ax
000009C8  6690              xchg ax,ax
000009CA  6690              xchg ax,ax
000009CC  6690              xchg ax,ax
000009CE  6690              xchg ax,ax
000009D0  6690              xchg ax,ax
000009D2  6690              xchg ax,ax
000009D4  6690              xchg ax,ax
000009D6  6690              xchg ax,ax
000009D8  6690              xchg ax,ax
000009DA  6690              xchg ax,ax
000009DC  6690              xchg ax,ax
000009DE  6690              xchg ax,ax
000009E0  6690              xchg ax,ax
000009E2  6690              xchg ax,ax
000009E4  6690              xchg ax,ax
000009E6  6690              xchg ax,ax
000009E8  6690              xchg ax,ax
000009EA  6690              xchg ax,ax
000009EC  6690              xchg ax,ax
000009EE  6690              xchg ax,ax
000009F0  6690              xchg ax,ax
000009F2  6690              xchg ax,ax
000009F4  6690              xchg ax,ax
000009F6  6690              xchg ax,ax
000009F8  6690              xchg ax,ax
000009FA  6690              xchg ax,ax
000009FC  6690              xchg ax,ax
000009FE  6690              xchg ax,ax
00000A00  6690              xchg ax,ax
00000A02  6690              xchg ax,ax
00000A04  6690              xchg ax,ax
00000A06  6690              xchg ax,ax
00000A08  6690              xchg ax,ax
00000A0A  6690              xchg ax,ax
00000A0C  6690              xchg ax,ax
00000A0E  6690              xchg ax,ax
00000A10  6690              xchg ax,ax
00000A12  6690              xchg ax,ax
00000A14  6690              xchg ax,ax
00000A16  6690              xchg ax,ax
00000A18  6690              xchg ax,ax
00000A1A  6690              xchg ax,ax
00000A1C  6690              xchg ax,ax
00000A1E  6690              xchg ax,ax
00000A20  6690              xchg ax,ax
00000A22  6690              xchg ax,ax
00000A24  6690              xchg ax,ax
00000A26  6690              xchg ax,ax
00000A28  6690              xchg ax,ax
00000A2A  6690              xchg ax,ax
00000A2C  6690              xchg ax,ax
00000A2E  6690              xchg ax,ax
00000A30  6690              xchg ax,ax
00000A32  6690              xchg ax,ax
00000A34  6690              xchg ax,ax
00000A36  6690              xchg ax,ax
00000A38  6690              xchg ax,ax
00000A3A  6690              xchg ax,ax
00000A3C  6690              xchg ax,ax
00000A3E  6690              xchg ax,ax
00000A40  6690              xchg ax,ax
00000A42  6690              xchg ax,ax
00000A44  6690              xchg ax,ax
00000A46  6690              xchg ax,ax
00000A48  6690              xchg ax,ax
00000A4A  6690              xchg ax,ax
00000A4C  6690              xchg ax,ax
00000A4E  6690              xchg ax,ax
00000A50  6690              xchg ax,ax
00000A52  6690              xchg ax,ax
00000A54  6690              xchg ax,ax
00000A56  6690              xchg ax,ax
00000A58  6690              xchg ax,ax
00000A5A  6690              xchg ax,ax
00000A5C  6690              xchg ax,ax
00000A5E  6690              xchg ax,ax
00000A60  6690              xchg ax,ax
00000A62  6690              xchg ax,ax
00000A64  6690              xchg ax,ax
00000A66  6690              xchg ax,ax
00000A68  6690              xchg ax,ax
00000A6A  6690              xchg ax,ax
00000A6C  6690              xchg ax,ax
00000A6E  6690              xchg ax,ax
00000A70  6690              xchg ax,ax
00000A72  6690              xchg ax,ax
00000A74  6690              xchg ax,ax
00000A76  6690              xchg ax,ax
00000A78  6690              xchg ax,ax
00000A7A  6690              xchg ax,ax
00000A7C  6690              xchg ax,ax
00000A7E  6690              xchg ax,ax
00000A80  6690              xchg ax,ax
00000A82  6690              xchg ax,ax
00000A84  6690              xchg ax,ax
00000A86  6690              xchg ax,ax
00000A88  6690              xchg ax,ax
00000A8A  6690              xchg ax,ax
00000A8C  6690              xchg ax,ax
00000A8E  6690              xchg ax,ax
00000A90  6690              xchg ax,ax
00000A92  6690              xchg ax,ax
00000A94  6690              xchg ax,ax
00000A96  6690              xchg ax,ax
00000A98  6690              xchg ax,ax
00000A9A  6690              xchg ax,ax
00000A9C  6690              xchg ax,ax
00000A9E  6690              xchg ax,ax
00000AA0  6690              xchg ax,ax
00000AA2  6690              xchg ax,ax
00000AA4  6690              xchg ax,ax
00000AA6  6690              xchg ax,ax
00000AA8  6690              xchg ax,ax
00000AAA  6690              xchg ax,ax
00000AAC  6690              xchg ax,ax
00000AAE  6690              xchg ax,ax
00000AB0  6690              xchg ax,ax
00000AB2  6690              xchg ax,ax
00000AB4  6690              xchg ax,ax
00000AB6  6690              xchg ax,ax
00000AB8  6690              xchg ax,ax
00000ABA  6690              xchg ax,ax
00000ABC  6690              xchg ax,ax
00000ABE  6690              xchg ax,ax
00000AC0  6690              xchg ax,ax
00000AC2  6690              xchg ax,ax
00000AC4  6690              xchg ax,ax
00000AC6  6690              xchg ax,ax
00000AC8  6690              xchg ax,ax
00000ACA  6690              xchg ax,ax
00000ACC  6690              xchg ax,ax
00000ACE  6690              xchg ax,ax
00000AD0  6690              xchg ax,ax
00000AD2  6690              xchg ax,ax
00000AD4  6690              xchg ax,ax
00000AD6  6690              xchg ax,ax
00000AD8  6690              xchg ax,ax
00000ADA  6690              xchg ax,ax
00000ADC  6690              xchg ax,ax
00000ADE  6690              xchg ax,ax
00000AE0  6690              xchg ax,ax
00000AE2  6690              xchg ax,ax
00000AE4  6690              xchg ax,ax
00000AE6  6690              xchg ax,ax
00000AE8  6690              xchg ax,ax
00000AEA  6690              xchg ax,ax
00000AEC  6690              xchg ax,ax
00000AEE  6690              xchg ax,ax
00000AF0  6690              xchg ax,ax
00000AF2  6690              xchg ax,ax
00000AF4  6690              xchg ax,ax
00000AF6  6690              xchg ax,ax
00000AF8  6690              xchg ax,ax
00000AFA  6690              xchg ax,ax
00000AFC  6690              xchg ax,ax
00000AFE  6690              xchg ax,ax
00000B00  6690              xchg ax,ax
00000B02  6690              xchg ax,ax
00000B04  6690              xchg ax,ax
00000B06  6690              xchg ax,ax
00000B08  6690              xchg ax,ax
00000B0A  6690              xchg ax,ax
00000B0C  6690              xchg ax,ax
00000B0E  6690              xchg ax,ax
00000B10  6690              xchg ax,ax
00000B12  6690              xchg ax,ax
00000B14  6690              xchg ax,ax
00000B16  6690              xchg ax,ax
00000B18  6690              xchg ax,ax
00000B1A  6690              xchg ax,ax
00000B1C  6690              xchg ax,ax
00000B1E  6690              xchg ax,ax
00000B20  6690              xchg ax,ax
00000B22  6690              xchg ax,ax
00000B24  6690              xchg ax,ax
00000B26  6690              xchg ax,ax
00000B28  6690              xchg ax,ax
00000B2A  6690              xchg ax,ax
00000B2C  6690              xchg ax,ax
00000B2E  6690              xchg ax,ax
00000B30  6690              xchg ax,ax
00000B32  6690              xchg ax,ax
00000B34  6690              xchg ax,ax
00000B36  6690              xchg ax,ax
00000B38  6690              xchg ax,ax
00000B3A  6690              xchg ax,ax
00000B3C  6690              xchg ax,ax
00000B3E  6690              xchg ax,ax
00000B40  6690              xchg ax,ax
00000B42  6690              xchg ax,ax
00000B44  6690              xchg ax,ax
00000B46  6690              xchg ax,ax
00000B48  6690              xchg ax,ax
00000B4A  6690              xchg ax,ax
00000B4C  6690              xchg ax,ax
00000B4E  6690              xchg ax,ax
00000B50  6690              xchg ax,ax
00000B52  6690              xchg ax,ax
00000B54  6690              xchg ax,ax
00000B56  6690              xchg ax,ax
00000B58  6690              xchg ax,ax
00000B5A  6690              xchg ax,ax
00000B5C  6690              xchg ax,ax
00000B5E  6690              xchg ax,ax
00000B60  6690              xchg ax,ax
00000B62  6690              xchg ax,ax
00000B64  6690              xchg ax,ax
00000B66  6690              xchg ax,ax
00000B68  6690              xchg ax,ax
00000B6A  6690              xchg ax,ax
00000B6C  6690              xchg ax,ax
00000B6E  6690              xchg ax,ax
00000B70  6690              xchg ax,ax
00000B72  6690              xchg ax,ax
00000B74  6690              xchg ax,ax
00000B76  6690              xchg ax,ax
00000B78  6690              xchg ax,ax
00000B7A  6690              xchg ax,ax
00000B7C  6690              xchg ax,ax
00000B7E  6690              xchg ax,ax
00000B80  6690              xchg ax,ax
00000B82  6690              xchg ax,ax
00000B84  6690              xchg ax,ax
00000B86  6690              xchg ax,ax
00000B88  6690              xchg ax,ax
00000B8A  6690              xchg ax,ax
00000B8C  6690              xchg ax,ax
00000B8E  6690              xchg ax,ax
00000B90  6690              xchg ax,ax
00000B92  6690              xchg ax,ax
00000B94  6690              xchg ax,ax
00000B96  6690              xchg ax,ax
00000B98  6690              xchg ax,ax
00000B9A  6690              xchg ax,ax
00000B9C  6690              xchg ax,ax
00000B9E  6690              xchg ax,ax
00000BA0  6690              xchg ax,ax
00000BA2  6690              xchg ax,ax
00000BA4  6690              xchg ax,ax
00000BA6  6690              xchg ax,ax
00000BA8  6690              xchg ax,ax
00000BAA  6690              xchg ax,ax
00000BAC  6690              xchg ax,ax
00000BAE  6690              xchg ax,ax
00000BB0  6690              xchg ax,ax
00000BB2  6690              xchg ax,ax
00000BB4  6690              xchg ax,ax
00000BB6  6690              xchg ax,ax
00000BB8  6690              xchg ax,ax
00000BBA  6690              xchg ax,ax
00000BBC  6690              xchg ax,ax
00000BBE  6690              xchg ax,ax
00000BC0  6690              xchg ax,ax
00000BC2  6690              xchg ax,ax
00000BC4  6690              xchg ax,ax
00000BC6  6690              xchg ax,ax
00000BC8  6690              xchg ax,ax
00000BCA  6690              xchg ax,ax
00000BCC  6690              xchg ax,ax
00000BCE  6690              xchg ax,ax
00000BD0  6690              xchg ax,ax
00000BD2  6690              xchg ax,ax
00000BD4  6690              xchg ax,ax
00000BD6  6690              xchg ax,ax
00000BD8  6690              xchg ax,ax
00000BDA  6690              xchg ax,ax
00000BDC  6690              xchg ax,ax
00000BDE  6690              xchg ax,ax
00000BE0  6690              xchg ax,ax
00000BE2  6690              xchg ax,ax
00000BE4  6690              xchg ax,ax
00000BE6  6690              xchg ax,ax
00000BE8  6690              xchg ax,ax
00000BEA  6690              xchg ax,ax
00000BEC  6690              xchg ax,ax
00000BEE  6690              xchg ax,ax
00000BF0  6690              xchg ax,ax
00000BF2  6690              xchg ax,ax
00000BF4  6690              xchg ax,ax
00000BF6  6690              xchg ax,ax
00000BF8  6690              xchg ax,ax
00000BFA  6690              xchg ax,ax
00000BFC  6690              xchg ax,ax
00000BFE  6690              xchg ax,ax
00000C00  6690              xchg ax,ax
00000C02  6690              xchg ax,ax
00000C04  6690              xchg ax,ax
00000C06  6690              xchg ax,ax
00000C08  6690              xchg ax,ax
00000C0A  6690              xchg ax,ax
00000C0C  6690              xchg ax,ax
00000C0E  6690              xchg ax,ax
00000C10  6690              xchg ax,ax
00000C12  6690              xchg ax,ax
00000C14  6690              xchg ax,ax
00000C16  6690              xchg ax,ax
00000C18  6690              xchg ax,ax
00000C1A  6690              xchg ax,ax
00000C1C  6690              xchg ax,ax
00000C1E  6690              xchg ax,ax
00000C20  6690              xchg ax,ax
00000C22  6690              xchg ax,ax
00000C24  6690              xchg ax,ax
00000C26  6690              xchg ax,ax
00000C28  6690              xchg ax,ax
00000C2A  6690              xchg ax,ax
00000C2C  6690              xchg ax,ax
00000C2E  6690              xchg ax,ax
00000C30  6690              xchg ax,ax
00000C32  6690              xchg ax,ax
00000C34  6690              xchg ax,ax
00000C36  6690              xchg ax,ax
00000C38  6690              xchg ax,ax
00000C3A  6690              xchg ax,ax
00000C3C  6690              xchg ax,ax
00000C3E  6690              xchg ax,ax
00000C40  6690              xchg ax,ax
00000C42  6690              xchg ax,ax
00000C44  6690              xchg ax,ax
00000C46  6690              xchg ax,ax
00000C48  6690              xchg ax,ax
00000C4A  6690              xchg ax,ax
00000C4C  6690              xchg ax,ax
00000C4E  6690              xchg ax,ax
00000C50  6690              xchg ax,ax
00000C52  6690              xchg ax,ax
00000C54  6690              xchg ax,ax
00000C56  6690              xchg ax,ax
00000C58  6690              xchg ax,ax
00000C5A  6690              xchg ax,ax
00000C5C  6690              xchg ax,ax
00000C5E  6690              xchg ax,ax
00000C60  6690              xchg ax,ax
00000C62  6690              xchg ax,ax
00000C64  6690              xchg ax,ax
00000C66  6690              xchg ax,ax
00000C68  6690              xchg ax,ax
00000C6A  6690              xchg ax,ax
00000C6C  6690              xchg ax,ax
00000C6E  6690              xchg ax,ax
00000C70  6690              xchg ax,ax
00000C72  6690              xchg ax,ax
00000C74  6690              xchg ax,ax
00000C76  6690              xchg ax,ax
00000C78  6690              xchg ax,ax
00000C7A  6690              xchg ax,ax
00000C7C  6690              xchg ax,ax
00000C7E  6690              xchg ax,ax
00000C80  6690              xchg ax,ax
00000C82  6690              xchg ax,ax
00000C84  6690              xchg ax,ax
00000C86  6690              xchg ax,ax
00000C88  6690              xchg ax,ax
00000C8A  6690              xchg ax,ax
00000C8C  6690              xchg ax,ax
00000C8E  6690              xchg ax,ax
00000C90  6690              xchg ax,ax
00000C92  6690              xchg ax,ax
00000C94  6690              xchg ax,ax
00000C96  6690              xchg ax,ax
00000C98  6690              xchg ax,ax
00000C9A  6690              xchg ax,ax
00000C9C  6690              xchg ax,ax
00000C9E  6690              xchg ax,ax
00000CA0  6690              xchg ax,ax
00000CA2  6690              xchg ax,ax
00000CA4  6690              xchg ax,ax
00000CA6  6690              xchg ax,ax
00000CA8  6690              xchg ax,ax
00000CAA  6690              xchg ax,ax
00000CAC  6690              xchg ax,ax
00000CAE  6690              xchg ax,ax
00000CB0  6690              xchg ax,ax
00000CB2  6690              xchg ax,ax
00000CB4  6690              xchg ax,ax
00000CB6  6690              xchg ax,ax
00000CB8  6690              xchg ax,ax
00000CBA  6690              xchg ax,ax
00000CBC  6690              xchg ax,ax
00000CBE  6690              xchg ax,ax
00000CC0  6690              xchg ax,ax
00000CC2  6690              xchg ax,ax
00000CC4  6690              xchg ax,ax
00000CC6  6690              xchg ax,ax
00000CC8  6690              xchg ax,ax
00000CCA  6690              xchg ax,ax
00000CCC  6690              xchg ax,ax
00000CCE  6690              xchg ax,ax
00000CD0  6690              xchg ax,ax
00000CD2  6690              xchg ax,ax
00000CD4  6690              xchg ax,ax
00000CD6  6690              xchg ax,ax
00000CD8  6690              xchg ax,ax
00000CDA  6690              xchg ax,ax
00000CDC  6690              xchg ax,ax
00000CDE  6690              xchg ax,ax
00000CE0  6690              xchg ax,ax
00000CE2  6690              xchg ax,ax
00000CE4  6690              xchg ax,ax
00000CE6  6690              xchg ax,ax
00000CE8  6690              xchg ax,ax
00000CEA  6690              xchg ax,ax
00000CEC  6690              xchg ax,ax
00000CEE  6690              xchg ax,ax
00000CF0  6690              xchg ax,ax
00000CF2  6690              xchg ax,ax
00000CF4  6690              xchg ax,ax
00000CF6  6690              xchg ax,ax
00000CF8  6690              xchg ax,ax
00000CFA  6690              xchg ax,ax
00000CFC  6690              xchg ax,ax
00000CFE  6690              xchg ax,ax
00000D00  6690              xchg ax,ax
00000D02  6690              xchg ax,ax
00000D04  6690              xchg ax,ax
00000D06  6690              xchg ax,ax
00000D08  6690              xchg ax,ax
00000D0A  6690              xchg ax,ax
00000D0C  6690              xchg ax,ax
00000D0E  6690              xchg ax,ax
00000D10  6690              xchg ax,ax
00000D12  6690              xchg ax,ax
00000D14  6690              xchg ax,ax
00000D16  6690              xchg ax,ax
00000D18  6690              xchg ax,ax
00000D1A  6690              xchg ax,ax
00000D1C  6690              xchg ax,ax
00000D1E  6690              xchg ax,ax
00000D20  6690              xchg ax,ax
00000D22  6690              xchg ax,ax
00000D24  6690              xchg ax,ax
00000D26  6690              xchg ax,ax
00000D28  6690              xchg ax,ax
00000D2A  6690              xchg ax,ax
00000D2C  6690              xchg ax,ax
00000D2E  6690              xchg ax,ax
00000D30  6690              xchg ax,ax
00000D32  6690              xchg ax,ax
00000D34  6690              xchg ax,ax
00000D36  6690              xchg ax,ax
00000D38  6690              xchg ax,ax
00000D3A  6690              xchg ax,ax
00000D3C  6690              xchg ax,ax
00000D3E  6690              xchg ax,ax
00000D40  6690              xchg ax,ax
00000D42  6690              xchg ax,ax
00000D44  6690              xchg ax,ax
00000D46  6690              xchg ax,ax
00000D48  6690              xchg ax,ax
00000D4A  6690              xchg ax,ax
00000D4C  6690              xchg ax,ax
00000D4E  6690              xchg ax,ax
00000D50  6690              xchg ax,ax
00000D52  6690              xchg ax,ax
00000D54  6690              xchg ax,ax
00000D56  6690              xchg ax,ax
00000D58  6690              xchg ax,ax
00000D5A  6690              xchg ax,ax
00000D5C  6690              xchg ax,ax
00000D5E  6690              xchg ax,ax
00000D60  6690              xchg ax,ax
00000D62  6690              xchg ax,ax
00000D64  6690              xchg ax,ax
00000D66  6690              xchg ax,ax
00000D68  6690              xchg ax,ax
00000D6A  6690              xchg ax,ax
00000D6C  6690              xchg ax,ax
00000D6E  6690              xchg ax,ax
00000D70  6690              xchg ax,ax
00000D72  6690              xchg ax,ax
00000D74  6690              xchg ax,ax
00000D76  6690              xchg ax,ax
00000D78  6690              xchg ax,ax
00000D7A  6690              xchg ax,ax
00000D7C  6690              xchg ax,ax
00000D7E  6690              xchg ax,ax
00000D80  6690              xchg ax,ax
00000D82  6690              xchg ax,ax
00000D84  6690              xchg ax,ax
00000D86  6690              xchg ax,ax
00000D88  6690              xchg ax,ax
00000D8A  6690              xchg ax,ax
00000D8C  6690              xchg ax,ax
00000D8E  6690              xchg ax,ax
00000D90  6690              xchg ax,ax
00000D92  6690              xchg ax,ax
00000D94  6690              xchg ax,ax
00000D96  6690              xchg ax,ax
00000D98  6690              xchg ax,ax
00000D9A  6690              xchg ax,ax
00000D9C  6690              xchg ax,ax
00000D9E  6690              xchg ax,ax
00000DA0  6690              xchg ax,ax
00000DA2  6690              xchg ax,ax
00000DA4  6690              xchg ax,ax
00000DA6  6690              xchg ax,ax
00000DA8  6690              xchg ax,ax
00000DAA  6690              xchg ax,ax
00000DAC  6690              xchg ax,ax
00000DAE  6690              xchg ax,ax
00000DB0  6690              xchg ax,ax
00000DB2  6690              xchg ax,ax
00000DB4  6690              xchg ax,ax
00000DB6  6690              xchg ax,ax
00000DB8  6690              xchg ax,ax
00000DBA  6690              xchg ax,ax
00000DBC  6690              xchg ax,ax
00000DBE  6690              xchg ax,ax
00000DC0  6690              xchg ax,ax
00000DC2  6690              xchg ax,ax
00000DC4  6690              xchg ax,ax
00000DC6  6690              xchg ax,ax
00000DC8  6690              xchg ax,ax
00000DCA  6690              xchg ax,ax
00000DCC  6690              xchg ax,ax
00000DCE  6690              xchg ax,ax
00000DD0  6690              xchg ax,ax
00000DD2  6690              xchg ax,ax
00000DD4  6690              xchg ax,ax
00000DD6  6690              xchg ax,ax
00000DD8  6690              xchg ax,ax
00000DDA  6690              xchg ax,ax
00000DDC  6690              xchg ax,ax
00000DDE  6690              xchg ax,ax
00000DE0  6690              xchg ax,ax
00000DE2  6690              xchg ax,ax
00000DE4  6690              xchg ax,ax
00000DE6  6690              xchg ax,ax
00000DE8  6690              xchg ax,ax
00000DEA  6690              xchg ax,ax
00000DEC  6690              xchg ax,ax
00000DEE  6690              xchg ax,ax
00000DF0  6690              xchg ax,ax
00000DF2  6690              xchg ax,ax
00000DF4  6690              xchg ax,ax
00000DF6  6690              xchg ax,ax
00000DF8  6690              xchg ax,ax
00000DFA  6690              xchg ax,ax
00000DFC  6690              xchg ax,ax
00000DFE  6690              xchg ax,ax
00000E00  6690              xchg ax,ax
00000E02  6690              xchg ax,ax
00000E04  6690              xchg ax,ax
00000E06  6690              xchg ax,ax
00000E08  6690              xchg ax,ax
00000E0A  6690              xchg ax,ax
00000E0C  6690              xchg ax,ax
00000E0E  6690              xchg ax,ax
00000E10  6690              xchg ax,ax
00000E12  6690              xchg ax,ax
00000E14  6690              xchg ax,ax
00000E16  6690              xchg ax,ax
00000E18  6690              xchg ax,ax
00000E1A  6690              xchg ax,ax
00000E1C  6690              xchg ax,ax
00000E1E  6690              xchg ax,ax
00000E20  6690              xchg ax,ax
00000E22  6690              xchg ax,ax
00000E24  6690              xchg ax,ax
00000E26  6690              xchg ax,ax
00000E28  6690              xchg ax,ax
00000E2A  6690              xchg ax,ax
00000E2C  6690              xchg ax,ax
00000E2E  6690              xchg ax,ax
00000E30  6690              xchg ax,ax
00000E32  6690              xchg ax,ax
00000E34  6690              xchg ax,ax
00000E36  6690              xchg ax,ax
00000E38  6690              xchg ax,ax
00000E3A  6690              xchg ax,ax
00000E3C  6690              xchg ax,ax
00000E3E  6690              xchg ax,ax
00000E40  6690              xchg ax,ax
00000E42  6690              xchg ax,ax
00000E44  6690              xchg ax,ax
00000E46  6690              xchg ax,ax
00000E48  6690              xchg ax,ax
00000E4A  6690              xchg ax,ax
00000E4C  6690              xchg ax,ax
00000E4E  6690              xchg ax,ax
00000E50  6690              xchg ax,ax
00000E52  6690              xchg ax,ax
00000E54  6690              xchg ax,ax
00000E56  6690              xchg ax,ax
00000E58  6690              xchg ax,ax
00000E5A  6690              xchg ax,ax
00000E5C  6690              xchg ax,ax
00000E5E  6690              xchg ax,ax
00000E60  6690              xchg ax,ax
00000E62  6690              xchg ax,ax
00000E64  6690              xchg ax,ax
00000E66  6690              xchg ax,ax
00000E68  6690              xchg ax,ax
00000E6A  6690              xchg ax,ax
00000E6C  6690              xchg ax,ax
00000E6E  6690              xchg ax,ax
00000E70  6690              xchg ax,ax
00000E72  6690              xchg ax,ax
00000E74  6690              xchg ax,ax
00000E76  6690              xchg ax,ax
00000E78  6690              xchg ax,ax
00000E7A  6690              xchg ax,ax
00000E7C  6690              xchg ax,ax
00000E7E  6690              xchg ax,ax
00000E80  6690              xchg ax,ax
00000E82  6690              xchg ax,ax
00000E84  6690              xchg ax,ax
00000E86  6690              xchg ax,ax
00000E88  6690              xchg ax,ax
00000E8A  6690              xchg ax,ax
00000E8C  6690              xchg ax,ax
00000E8E  6690              xchg ax,ax
00000E90  6690              xchg ax,ax
00000E92  6690              xchg ax,ax
00000E94  6690              xchg ax,ax
00000E96  6690              xchg ax,ax
00000E98  6690              xchg ax,ax
00000E9A  6690              xchg ax,ax
00000E9C  6690              xchg ax,ax
00000E9E  6690              xchg ax,ax
00000EA0  6690              xchg ax,ax
00000EA2  6690              xchg ax,ax
00000EA4  6690              xchg ax,ax
00000EA6  6690              xchg ax,ax
00000EA8  6690              xchg ax,ax
00000EAA  6690              xchg ax,ax
00000EAC  6690              xchg ax,ax
00000EAE  6690              xchg ax,ax
00000EB0  6690              xchg ax,ax
00000EB2  6690              xchg ax,ax
00000EB4  6690              xchg ax,ax
00000EB6  6690              xchg ax,ax
00000EB8  6690              xchg ax,ax
00000EBA  6690              xchg ax,ax
00000EBC  6690              xchg ax,ax
00000EBE  6690              xchg ax,ax
00000EC0  6690              xchg ax,ax
00000EC2  6690              xchg ax,ax
00000EC4  6690              xchg ax,ax
00000EC6  6690              xchg ax,ax
00000EC8  6690              xchg ax,ax
00000ECA  6690              xchg ax,ax
00000ECC  6690              xchg ax,ax
00000ECE  6690              xchg ax,ax
00000ED0  6690              xchg ax,ax
00000ED2  6690              xchg ax,ax
00000ED4  6690              xchg ax,ax
00000ED6  6690              xchg ax,ax
00000ED8  6690              xchg ax,ax
00000EDA  6690              xchg ax,ax
00000EDC  6690              xchg ax,ax
00000EDE  6690              xchg ax,ax
00000EE0  6690              xchg ax,ax
00000EE2  6690              xchg ax,ax
00000EE4  6690              xchg ax,ax
00000EE6  6690              xchg ax,ax
00000EE8  6690              xchg ax,ax
00000EEA  6690              xchg ax,ax
00000EEC  6690              xchg ax,ax
00000EEE  6690              xchg ax,ax
00000EF0  6690              xchg ax,ax
00000EF2  6690              xchg ax,ax
00000EF4  6690              xchg ax,ax
00000EF6  6690              xchg ax,ax
00000EF8  6690              xchg ax,ax
00000EFA  6690              xchg ax,ax
00000EFC  6690              xchg ax,ax
00000EFE  6690              xchg ax,ax
00000F00  6690              xchg ax,ax
00000F02  6690              xchg ax,ax
00000F04  6690              xchg ax,ax
00000F06  6690              xchg ax,ax
00000F08  6690              xchg ax,ax
00000F0A  6690              xchg ax,ax
00000F0C  6690              xchg ax,ax
00000F0E  6690              xchg ax,ax
00000F10  6690              xchg ax,ax
00000F12  6690              xchg ax,ax
00000F14  6690              xchg ax,ax
00000F16  6690              xchg ax,ax
00000F18  6690              xchg ax,ax
00000F1A  6690              xchg ax,ax
00000F1C  6690              xchg ax,ax
00000F1E  6690              xchg ax,ax
00000F20  6690              xchg ax,ax
00000F22  6690              xchg ax,ax
00000F24  6690              xchg ax,ax
00000F26  6690              xchg ax,ax
00000F28  6690              xchg ax,ax
00000F2A  6690              xchg ax,ax
00000F2C  6690              xchg ax,ax
00000F2E  6690              xchg ax,ax
00000F30  6690              xchg ax,ax
00000F32  6690              xchg ax,ax
00000F34  6690              xchg ax,ax
00000F36  6690              xchg ax,ax
00000F38  6690              xchg ax,ax
00000F3A  6690              xchg ax,ax
00000F3C  6690              xchg ax,ax
00000F3E  6690              xchg ax,ax
00000F40  6690              xchg ax,ax
00000F42  6690              xchg ax,ax
00000F44  6690              xchg ax,ax
00000F46  6690              xchg ax,ax
00000F48  6690              xchg ax,ax
00000F4A  6690              xchg ax,ax
00000F4C  6690              xchg ax,ax
00000F4E  6690              xchg ax,ax
00000F50  6690              xchg ax,ax
00000F52  6690              xchg ax,ax
00000F54  6690              xchg ax,ax
00000F56  6690              xchg ax,ax
00000F58  6690              xchg ax,ax
00000F5A  6690              xchg ax,ax
00000F5C  6690              xchg ax,ax
00000F5E  6690              xchg ax,ax
00000F60  6690              xchg ax,ax
00000F62  6690              xchg ax,ax
00000F64  6690              xchg ax,ax
00000F66  6690              xchg ax,ax
00000F68  6690              xchg ax,ax
00000F6A  6690              xchg ax,ax
00000F6C  6690              xchg ax,ax
00000F6E  6690              xchg ax,ax
00000F70  6690              xchg ax,ax
00000F72  6690              xchg ax,ax
00000F74  6690              xchg ax,ax
00000F76  6690              xchg ax,ax
00000F78  6690              xchg ax,ax
00000F7A  6690              xchg ax,ax
00000F7C  6690              xchg ax,ax
00000F7E  6690              xchg ax,ax
00000F80  6690              xchg ax,ax
00000F82  6690              xchg ax,ax
00000F84  6690              xchg ax,ax
00000F86  6690              xchg ax,ax
00000F88  6690              xchg ax,ax
00000F8A  6690              xchg ax,ax
00000F8C  6690              xchg ax,ax
00000F8E  6690              xchg ax,ax
00000F90  6690              xchg ax,ax
00000F92  6690              xchg ax,ax
00000F94  6690              xchg ax,ax
00000F96  6690              xchg ax,ax
00000F98  6690              xchg ax,ax
00000F9A  6690              xchg ax,ax
00000F9C  6690              xchg ax,ax
00000F9E  6690              xchg ax,ax
00000FA0  6690              xchg ax,ax
00000FA2  6690              xchg ax,ax
00000FA4  6690              xchg ax,ax
00000FA6  6690              xchg ax,ax
00000FA8  6690              xchg ax,ax
00000FAA  6690              xchg ax,ax
00000FAC  6690              xchg ax,ax
00000FAE  6690              xchg ax,ax
00000FB0  6690              xchg ax,ax
00000FB2  6690              xchg ax,ax
00000FB4  6690              xchg ax,ax
00000FB6  6690              xchg ax,ax
00000FB8  6690              xchg ax,ax
00000FBA  6690              xchg ax,ax
00000FBC  6690              xchg ax,ax
00000FBE  6690              xchg ax,ax
00000FC0  6690              xchg ax,ax
00000FC2  6690              xchg ax,ax
00000FC4  6690              xchg ax,ax
00000FC6  6690              xchg ax,ax
00000FC8  6690              xchg ax,ax
00000FCA  6690              xchg ax,ax
00000FCC  6690              xchg ax,ax
00000FCE  6690              xchg ax,ax
00000FD0  6690              xchg ax,ax
00000FD2  6690              xchg ax,ax
00000FD4  6690              xchg ax,ax
00000FD6  6690              xchg ax,ax
00000FD8  6690              xchg ax,ax
00000FDA  6690              xchg ax,ax
00000FDC  6690              xchg ax,ax
00000FDE  6690              xchg ax,ax
00000FE0  6690              xchg ax,ax
00000FE2  6690              xchg ax,ax
00000FE4  6690              xchg ax,ax
00000FE6  6690              xchg ax,ax
00000FE8  6690              xchg ax,ax
00000FEA  6690              xchg ax,ax
00000FEC  6690              xchg ax,ax
00000FEE  6690              xchg ax,ax
00000FF0  6690              xchg ax,ax
00000FF2  6690              xchg ax,ax
00000FF4  6690              xchg ax,ax
00000FF6  6690              xchg ax,ax
00000FF8  6690              xchg ax,ax
00000FFA  6690              xchg ax,ax
00000FFC  6690              xchg ax,ax
00000FFE  6690              xchg ax,ax
00001000  31C0              xor eax,eax
00001002  C3                ret
00001003  001400            add [eax+eax],dl
00001006  0000              add [eax],al
00001008  0000              add [eax],al
0000100A  0000              add [eax],al
0000100C  017A52            add [edx+0x52],edi
0000100F  0001              add [ecx],al
00001011  7C08              jl 0x101b
00001013  011B              add [ebx],ebx
00001015  0C04              or al,0x4
00001017  0488              add al,0x88
00001019  0100              add [eax],eax
0000101B  0010              add [eax],dl
0000101D  0000              add [eax],al
0000101F  001C00            add [eax+eax],bl
00001022  0000              add [eax],al
00001024  E8EFFFFF22        call 0x23001018
00001029  0000              add [eax],al
0000102B  0000              add [eax],al
0000102D  0000              add [eax],al
0000102F  0018              add [eax],bl
00001031  0000              add [eax],al
00001033  0030              add [eax],dh
00001035  0000              add [eax],al
00001037  00F6              add dh,dh
00001039  EF                out dx,eax
0000103A  FF                db 0xff
0000103B  FF8501000000      inc dword [ebp+0x1]
00001041  41                inc ecx
00001042  0E                push cs
00001043  0885024E0D05      or [ebp+0x50d4e02],al
00001049  41                inc ecx
0000104A  8703              xchg eax,[ebx]
0000104C  1000              adc [eax],al
0000104E  0000              add [eax],al
00001050  4C                dec esp
00001051  0000              add [eax],al
00001053  00ACEFFFFF0C00    add [edi+ebp*8+0xcffff],ch
0000105A  0000              add [eax],al
0000105C  0000              add [eax],al
0000105E  0000              add [eax],al
00001060  1400              adc al,0x0
00001062  0000              add [eax],al
00001064  0000              add [eax],al
00001066  0000              add [eax],al
00001068  017A52            add [edx+0x52],edi
0000106B  0001              add [ecx],al
0000106D  7C08              jl 0x1077
0000106F  011B              add [ebx],ebx
00001071  0C04              or al,0x4
00001073  0488              add al,0x88
00001075  0100              add [eax],eax
00001077  001C00            add [eax+eax],bl
0000107A  0000              add [eax],al
0000107C  1C00              sbb al,0x0
0000107E  0000              add [eax],al
00001080  9E                sahf
00001081  F6FF              idiv bh
00001083  FF2B              jmp far [ebx]
00001085  0000              add [eax],al
00001087  0000              add [eax],al
00001089  41                inc ecx
0000108A  0E                push cs
0000108B  088502470D05      or [ebp+0x50d4702],al
00001091  47                inc edi
00001092  C50C04            lds ecx,[esp+eax]
00001095  0400              add al,0x0
00001097  001C00            add [eax+eax],bl
0000109A  0000              add [eax],al
0000109C  3C00              cmp al,0x0
0000109E  0000              add [eax],al
000010A0  A9F6FFFF27        test eax,0x27fffff6
000010A5  0000              add [eax],al
000010A7  0000              add [eax],al
000010A9  41                inc ecx
000010AA  0E                push cs
000010AB  088502420D05      or [ebp+0x50d4202],al
000010B1  47                inc edi
000010B2  C50C04            lds ecx,[esp+eax]
000010B5  0400              add al,0x0
000010B7  0020              add [eax],ah
000010B9  0000              add [eax],al
000010BB  005C0000          add [eax+eax+0x0],bl
000010BF  00B0F6FFFF43      add [eax+0x43fffff6],dh
000010C5  0000              add [eax],al
000010C7  0000              add [eax],al
000010C9  41                inc ecx
000010CA  0E                push cs
000010CB  088502420D05      or [ebp+0x50d4202],al
000010D1  41                inc ecx
000010D2  83037A            add dword [ebx],byte +0x7a
000010D5  C5                db 0xc5
000010D6  C3                ret
000010D7  0C04              or al,0x4
000010D9  0400              add al,0x0
000010DB  001400            add [eax+eax],dl
000010DE  0000              add [eax],al
000010E0  0000              add [eax],al
000010E2  0000              add [eax],al
000010E4  017A52            add [edx+0x52],edi
000010E7  0001              add [ecx],al
000010E9  7C08              jl 0x10f3
000010EB  011B              add [ebx],ebx
000010ED  0C04              or al,0x4
000010EF  0488              add al,0x88
000010F1  0100              add [eax],eax
000010F3  0010              add [eax],dl
000010F5  0000              add [eax],al
000010F7  001C00            add [eax+eax],bl
000010FA  0000              add [eax],al
000010FC  C4                db 0xc4
000010FD  F6FF              idiv bh
000010FF  FF1B              call far [ebx]
00001101  0000              add [eax],al
00001103  0000              add [eax],al
00001105  0000              add [eax],al
00001107  0010              add [eax],dl
00001109  0000              add [eax],al
0000110B  0030              add [eax],dh
0000110D  0000              add [eax],al
0000110F  00D0              add al,dl
00001111  F6FF              idiv bh
00001113  FF1F              call far [edi]
00001115  0000              add [eax],al
00001117  0000              add [eax],al
00001119  0000              add [eax],al
0000111B  0010              add [eax],dl
0000111D  0000              add [eax],al
0000111F  00440000          add [eax+eax+0x0],al
00001123  00DC              add ah,bl
00001125  F6FF              idiv bh
00001127  FF19              call far [ecx]
00001129  0000              add [eax],al
0000112B  0000              add [eax],al
0000112D  0000              add [eax],al
0000112F  0010              add [eax],dl
00001131  0000              add [eax],al
00001133  005800            add [eax+0x0],bl
00001136  0000              add [eax],al
00001138  E8F6FFFF22        call 0x23001133
0000113D  0000              add [eax],al
0000113F  0000              add [eax],al
00001141  0000              add [eax],al
00001143  001400            add [eax+eax],dl
00001146  0000              add [eax],al
00001148  0000              add [eax],al
0000114A  0000              add [eax],al
0000114C  017A52            add [edx+0x52],edi
0000114F  0001              add [ecx],al
00001151  7C08              jl 0x115b
00001153  011B              add [ebx],ebx
00001155  0C04              or al,0x4
00001157  0488              add al,0x88
00001159  0100              add [eax],eax
0000115B  0038              add [eax],bh
0000115D  0000              add [eax],al
0000115F  001C00            add [eax+eax],bl
00001162  0000              add [eax],al
00001164  DEF6              fdivrp st6
00001166  FF                db 0xff
00001167  FF                db 0xff
00001168  7A00              jpe 0x116a
0000116A  0000              add [eax],al
0000116C  00410E            add [ecx+0xe],al
0000116F  088502420D05      or [ebp+0x50d4202],al
00001175  46                inc esi
00001176  8703              xchg eax,[ebx]
00001178  860483            xchg al,[ebx+eax*4]
0000117B  05550AC341        add eax,0x41c30a55
00001180  C641C741          mov byte [ecx-0x39],0x41
00001184  C50C04            lds ecx,[esp+eax]
00001187  0442              add al,0x42
00001189  0B02              or eax,[edx]
0000118B  53                push ebx
0000118C  C3                ret
0000118D  41                inc ecx
0000118E  C641C741          mov byte [ecx-0x39],0x41
00001192  C50C04            lds ecx,[esp+eax]
00001195  0400              add al,0x0
00001197  0020              add [eax],ah
00001199  0000              add [eax],al
0000119B  005800            add [eax+0x0],bl
0000119E  0000              add [eax],al
000011A0  1CF7              sbb al,0xf7
000011A2  FF                db 0xff
000011A3  FF2C00            jmp far [eax+eax]
000011A6  0000              add [eax],al
000011A8  00410E            add [ecx+0xe],al
000011AB  088502420D05      or [ebp+0x50d4202],al
000011B1  41                inc ecx
000011B2  830367            add dword [ebx],byte +0x67
000011B5  C5                db 0xc5
000011B6  C3                ret
000011B7  0C04              or al,0x4
000011B9  0400              add al,0x0
000011BB  002C00            add [eax+eax],ch
000011BE  0000              add [eax],al
000011C0  7C00              jl 0x11c2
000011C2  0000              add [eax],al
000011C4  24F7              and al,0xf7
000011C6  FF                db 0xff
000011C7  FF7000            push dword [eax+0x0]
000011CA  0000              add [eax],al
000011CC  00410E            add [ecx+0xe],al
000011CF  088502420D05      or [ebp+0x50d4202],al
000011D5  41                inc ecx
000011D6  8703              xchg eax,[ebx]
000011D8  44                inc esp
000011D9  860483            xchg al,[ebx+eax*4]
000011DC  050264C341        add eax,0x41c36402
000011E1  C641C741          mov byte [ecx-0x39],0x41
000011E5  C50C04            lds ecx,[esp+eax]
000011E8  0400              add al,0x0
000011EA  0000              add [eax],al
000011EC  1C00              sbb al,0x0
000011EE  0000              add [eax],al
000011F0  AC                lodsb
000011F1  0000              add [eax],al
000011F3  0064F7FF          add [edi+esi*8-0x1],ah
000011F7  FF0A              dec dword [edx]
000011F9  0000              add [eax],al
000011FB  0000              add [eax],al
000011FD  41                inc ecx
000011FE  0E                push cs
000011FF  088502420D05      or [ebp+0x50d4202],al
00001205  46                inc esi
00001206  C50C04            lds ecx,[esp+eax]
00001209  0400              add al,0x0
0000120B  0010              add [eax],dl
0000120D  0000              add [eax],al
0000120F  00CC              add ah,cl
00001211  0000              add [eax],al
00001213  00EC              add ah,ch
00001215  FD                std
00001216  FF                db 0xff
00001217  FF03              inc dword [ebx]
00001219  0000              add [eax],al
0000121B  0000              add [eax],al
0000121D  0000              add [eax],al
0000121F  00FF              add bh,bh
00001221  07                pop es
00001222  C05400C000        rcl byte [eax+eax-0x40],byte 0x0
00001227  003F              add [edi],bh
00001229  0000              add [eax],al
0000122B  3000              xor [eax],al
0000122D  C00000            rol byte [eax],byte 0x0
00001230  0000              add [eax],al
00001232  0000              add [eax],al
00001234  0000              add [eax],al
00001236  0000              add [eax],al
00001238  0000              add [eax],al
0000123A  0000              add [eax],al
0000123C  0000              add [eax],al
0000123E  0000              add [eax],al
00001240  0000              add [eax],al
00001242  0000              add [eax],al
00001244  0000              add [eax],al
00001246  0000              add [eax],al
00001248  0000              add [eax],al
0000124A  0000              add [eax],al
0000124C  0000              add [eax],al
0000124E  0000              add [eax],al
00001250  0000              add [eax],al
00001252  0000              add [eax],al
00001254  0000              add [eax],al
00001256  0000              add [eax],al
00001258  0000              add [eax],al
0000125A  0000              add [eax],al
0000125C  0000              add [eax],al
0000125E  0000              add [eax],al
00001260  0000              add [eax],al
00001262  0000              add [eax],al
00001264  0000              add [eax],al
00001266  0000              add [eax],al
00001268  0000              add [eax],al
0000126A  0000              add [eax],al
0000126C  0000              add [eax],al
0000126E  0000              add [eax],al
00001270  0000              add [eax],al
00001272  0000              add [eax],al
00001274  0000              add [eax],al
00001276  0000              add [eax],al
00001278  0000              add [eax],al
0000127A  0000              add [eax],al
0000127C  0000              add [eax],al
0000127E  0000              add [eax],al
00001280  0000              add [eax],al
00001282  0000              add [eax],al
00001284  0000              add [eax],al
00001286  0000              add [eax],al
00001288  0000              add [eax],al
0000128A  0000              add [eax],al
0000128C  0000              add [eax],al
0000128E  0000              add [eax],al
00001290  0000              add [eax],al
00001292  0000              add [eax],al
00001294  0000              add [eax],al
00001296  0000              add [eax],al
00001298  0000              add [eax],al
0000129A  0000              add [eax],al
0000129C  0000              add [eax],al
0000129E  0000              add [eax],al
000012A0  0000              add [eax],al
000012A2  0000              add [eax],al
000012A4  0000              add [eax],al
000012A6  0000              add [eax],al
000012A8  0000              add [eax],al
000012AA  0000              add [eax],al
000012AC  0000              add [eax],al
000012AE  0000              add [eax],al
000012B0  0000              add [eax],al
000012B2  0000              add [eax],al
000012B4  0000              add [eax],al
000012B6  0000              add [eax],al
000012B8  0000              add [eax],al
000012BA  0000              add [eax],al
000012BC  0000              add [eax],al
000012BE  0000              add [eax],al
000012C0  0000              add [eax],al
000012C2  0000              add [eax],al
000012C4  0000              add [eax],al
000012C6  0000              add [eax],al
000012C8  0000              add [eax],al
000012CA  0000              add [eax],al
000012CC  0000              add [eax],al
000012CE  0000              add [eax],al
000012D0  0000              add [eax],al
000012D2  0000              add [eax],al
000012D4  0000              add [eax],al
000012D6  0000              add [eax],al
000012D8  0000              add [eax],al
000012DA  0000              add [eax],al
000012DC  0000              add [eax],al
000012DE  0000              add [eax],al
000012E0  0000              add [eax],al
000012E2  0000              add [eax],al
000012E4  0000              add [eax],al
000012E6  0000              add [eax],al
000012E8  0000              add [eax],al
000012EA  0000              add [eax],al
000012EC  0000              add [eax],al
000012EE  0000              add [eax],al
000012F0  0000              add [eax],al
000012F2  0000              add [eax],al
000012F4  0000              add [eax],al
000012F6  0000              add [eax],al
000012F8  0000              add [eax],al
000012FA  0000              add [eax],al
000012FC  0000              add [eax],al
000012FE  0000              add [eax],al
00001300  0000              add [eax],al
00001302  0000              add [eax],al
00001304  0000              add [eax],al
00001306  0000              add [eax],al
00001308  0000              add [eax],al
0000130A  0000              add [eax],al
0000130C  0000              add [eax],al
0000130E  0000              add [eax],al
00001310  0000              add [eax],al
00001312  0000              add [eax],al
00001314  0000              add [eax],al
00001316  0000              add [eax],al
00001318  0000              add [eax],al
0000131A  0000              add [eax],al
0000131C  0000              add [eax],al
0000131E  0000              add [eax],al
00001320  0000              add [eax],al
00001322  0000              add [eax],al
00001324  0000              add [eax],al
00001326  0000              add [eax],al
00001328  0000              add [eax],al
0000132A  0000              add [eax],al
0000132C  0000              add [eax],al
0000132E  0000              add [eax],al
00001330  0000              add [eax],al
00001332  0000              add [eax],al
00001334  0000              add [eax],al
00001336  0000              add [eax],al
00001338  0000              add [eax],al
0000133A  0000              add [eax],al
0000133C  0000              add [eax],al
0000133E  0000              add [eax],al
00001340  0000              add [eax],al
00001342  0000              add [eax],al
00001344  0000              add [eax],al
00001346  0000              add [eax],al
00001348  0000              add [eax],al
0000134A  0000              add [eax],al
0000134C  0000              add [eax],al
0000134E  0000              add [eax],al
00001350  0000              add [eax],al
00001352  0000              add [eax],al
00001354  0000              add [eax],al
00001356  0000              add [eax],al
00001358  0000              add [eax],al
0000135A  0000              add [eax],al
0000135C  0000              add [eax],al
0000135E  0000              add [eax],al
00001360  0000              add [eax],al
00001362  0000              add [eax],al
00001364  0000              add [eax],al
00001366  0000              add [eax],al
00001368  0000              add [eax],al
0000136A  0000              add [eax],al
0000136C  0000              add [eax],al
0000136E  0000              add [eax],al
00001370  0000              add [eax],al
00001372  0000              add [eax],al
00001374  0000              add [eax],al
00001376  0000              add [eax],al
00001378  0000              add [eax],al
0000137A  0000              add [eax],al
0000137C  0000              add [eax],al
0000137E  0000              add [eax],al
00001380  0000              add [eax],al
00001382  0000              add [eax],al
00001384  0000              add [eax],al
00001386  0000              add [eax],al
00001388  0000              add [eax],al
0000138A  0000              add [eax],al
0000138C  0000              add [eax],al
0000138E  0000              add [eax],al
00001390  0000              add [eax],al
00001392  0000              add [eax],al
00001394  0000              add [eax],al
00001396  0000              add [eax],al
00001398  0000              add [eax],al
0000139A  0000              add [eax],al
0000139C  0000              add [eax],al
0000139E  0000              add [eax],al
000013A0  0000              add [eax],al
000013A2  0000              add [eax],al
000013A4  0000              add [eax],al
000013A6  0000              add [eax],al
000013A8  0000              add [eax],al
000013AA  0000              add [eax],al
000013AC  0000              add [eax],al
000013AE  0000              add [eax],al
000013B0  0000              add [eax],al
000013B2  0000              add [eax],al
000013B4  0000              add [eax],al
000013B6  0000              add [eax],al
000013B8  0000              add [eax],al
000013BA  0000              add [eax],al
000013BC  0000              add [eax],al
000013BE  0000              add [eax],al
000013C0  0000              add [eax],al
000013C2  0000              add [eax],al
000013C4  0000              add [eax],al
000013C6  0000              add [eax],al
000013C8  0000              add [eax],al
000013CA  0000              add [eax],al
000013CC  0000              add [eax],al
000013CE  0000              add [eax],al
000013D0  0000              add [eax],al
000013D2  0000              add [eax],al
000013D4  0000              add [eax],al
000013D6  0000              add [eax],al
000013D8  0000              add [eax],al
000013DA  0000              add [eax],al
000013DC  0000              add [eax],al
000013DE  0000              add [eax],al
000013E0  0000              add [eax],al
000013E2  0000              add [eax],al
000013E4  0000              add [eax],al
000013E6  0000              add [eax],al
000013E8  0000              add [eax],al
000013EA  0000              add [eax],al
000013EC  0000              add [eax],al
000013EE  0000              add [eax],al
000013F0  0000              add [eax],al
000013F2  0000              add [eax],al
000013F4  0000              add [eax],al
000013F6  0000              add [eax],al
000013F8  0000              add [eax],al
000013FA  0000              add [eax],al
000013FC  0000              add [eax],al
000013FE  0000              add [eax],al
00001400  0000              add [eax],al
00001402  0000              add [eax],al
00001404  0000              add [eax],al
00001406  0000              add [eax],al
00001408  0000              add [eax],al
0000140A  0000              add [eax],al
0000140C  0000              add [eax],al
0000140E  0000              add [eax],al
00001410  0000              add [eax],al
00001412  0000              add [eax],al
00001414  0000              add [eax],al
00001416  0000              add [eax],al
00001418  0000              add [eax],al
0000141A  0000              add [eax],al
0000141C  0000              add [eax],al
0000141E  0000              add [eax],al
00001420  0000              add [eax],al
00001422  0000              add [eax],al
00001424  0000              add [eax],al
00001426  0000              add [eax],al
00001428  0000              add [eax],al
0000142A  0000              add [eax],al
0000142C  0000              add [eax],al
0000142E  0000              add [eax],al
00001430  0000              add [eax],al
00001432  0000              add [eax],al
00001434  0000              add [eax],al
00001436  0000              add [eax],al
00001438  0000              add [eax],al
0000143A  0000              add [eax],al
0000143C  0000              add [eax],al
0000143E  0000              add [eax],al
00001440  0000              add [eax],al
00001442  0000              add [eax],al
00001444  0000              add [eax],al
00001446  0000              add [eax],al
00001448  0000              add [eax],al
0000144A  0000              add [eax],al
0000144C  0000              add [eax],al
0000144E  0000              add [eax],al
00001450  0000              add [eax],al
00001452  0000              add [eax],al
00001454  0000              add [eax],al
00001456  0000              add [eax],al
00001458  0000              add [eax],al
0000145A  0000              add [eax],al
0000145C  0000              add [eax],al
0000145E  0000              add [eax],al
00001460  0000              add [eax],al
00001462  0000              add [eax],al
00001464  0000              add [eax],al
00001466  0000              add [eax],al
00001468  0000              add [eax],al
0000146A  0000              add [eax],al
0000146C  0000              add [eax],al
0000146E  0000              add [eax],al
00001470  0000              add [eax],al
00001472  0000              add [eax],al
00001474  0000              add [eax],al
00001476  0000              add [eax],al
00001478  0000              add [eax],al
0000147A  0000              add [eax],al
0000147C  0000              add [eax],al
0000147E  0000              add [eax],al
00001480  0000              add [eax],al
00001482  0000              add [eax],al
00001484  0000              add [eax],al
00001486  0000              add [eax],al
00001488  0000              add [eax],al
0000148A  0000              add [eax],al
0000148C  0000              add [eax],al
0000148E  0000              add [eax],al
00001490  0000              add [eax],al
00001492  0000              add [eax],al
00001494  0000              add [eax],al
00001496  0000              add [eax],al
00001498  0000              add [eax],al
0000149A  0000              add [eax],al
0000149C  0000              add [eax],al
0000149E  0000              add [eax],al
000014A0  0000              add [eax],al
000014A2  0000              add [eax],al
000014A4  0000              add [eax],al
000014A6  0000              add [eax],al
000014A8  0000              add [eax],al
000014AA  0000              add [eax],al
000014AC  0000              add [eax],al
000014AE  0000              add [eax],al
000014B0  0000              add [eax],al
000014B2  0000              add [eax],al
000014B4  0000              add [eax],al
000014B6  0000              add [eax],al
000014B8  0000              add [eax],al
000014BA  0000              add [eax],al
000014BC  0000              add [eax],al
000014BE  0000              add [eax],al
000014C0  0000              add [eax],al
000014C2  0000              add [eax],al
000014C4  0000              add [eax],al
000014C6  0000              add [eax],al
000014C8  0000              add [eax],al
000014CA  0000              add [eax],al
000014CC  0000              add [eax],al
000014CE  0000              add [eax],al
000014D0  0000              add [eax],al
000014D2  0000              add [eax],al
000014D4  0000              add [eax],al
000014D6  0000              add [eax],al
000014D8  0000              add [eax],al
000014DA  0000              add [eax],al
000014DC  0000              add [eax],al
000014DE  0000              add [eax],al
000014E0  0000              add [eax],al
000014E2  0000              add [eax],al
000014E4  0000              add [eax],al
000014E6  0000              add [eax],al
000014E8  0000              add [eax],al
000014EA  0000              add [eax],al
000014EC  0000              add [eax],al
000014EE  0000              add [eax],al
000014F0  0000              add [eax],al
000014F2  0000              add [eax],al
000014F4  0000              add [eax],al
000014F6  0000              add [eax],al
000014F8  0000              add [eax],al
000014FA  0000              add [eax],al
000014FC  0000              add [eax],al
000014FE  0000              add [eax],al
00001500  0000              add [eax],al
00001502  0000              add [eax],al
00001504  0000              add [eax],al
00001506  0000              add [eax],al
00001508  0000              add [eax],al
0000150A  0000              add [eax],al
0000150C  0000              add [eax],al
0000150E  0000              add [eax],al
00001510  0000              add [eax],al
00001512  0000              add [eax],al
00001514  0000              add [eax],al
00001516  0000              add [eax],al
00001518  0000              add [eax],al
0000151A  0000              add [eax],al
0000151C  0000              add [eax],al
0000151E  0000              add [eax],al
00001520  0000              add [eax],al
00001522  0000              add [eax],al
00001524  0000              add [eax],al
00001526  0000              add [eax],al
00001528  0000              add [eax],al
0000152A  0000              add [eax],al
0000152C  0000              add [eax],al
0000152E  0000              add [eax],al
00001530  0000              add [eax],al
00001532  0000              add [eax],al
00001534  0000              add [eax],al
00001536  0000              add [eax],al
00001538  0000              add [eax],al
0000153A  0000              add [eax],al
0000153C  0000              add [eax],al
0000153E  0000              add [eax],al
00001540  0000              add [eax],al
00001542  0000              add [eax],al
00001544  0000              add [eax],al
00001546  0000              add [eax],al
00001548  0000              add [eax],al
0000154A  0000              add [eax],al
0000154C  0000              add [eax],al
0000154E  0000              add [eax],al
00001550  0000              add [eax],al
00001552  0000              add [eax],al
00001554  0000              add [eax],al
00001556  0000              add [eax],al
00001558  0000              add [eax],al
0000155A  0000              add [eax],al
0000155C  0000              add [eax],al
0000155E  0000              add [eax],al
00001560  0000              add [eax],al
00001562  0000              add [eax],al
00001564  0000              add [eax],al
00001566  0000              add [eax],al
00001568  0000              add [eax],al
0000156A  0000              add [eax],al
0000156C  0000              add [eax],al
0000156E  0000              add [eax],al
00001570  0000              add [eax],al
00001572  0000              add [eax],al
00001574  0000              add [eax],al
00001576  0000              add [eax],al
00001578  0000              add [eax],al
0000157A  0000              add [eax],al
0000157C  0000              add [eax],al
0000157E  0000              add [eax],al
00001580  0000              add [eax],al
00001582  0000              add [eax],al
00001584  0000              add [eax],al
00001586  0000              add [eax],al
00001588  0000              add [eax],al
0000158A  0000              add [eax],al
0000158C  0000              add [eax],al
0000158E  0000              add [eax],al
00001590  0000              add [eax],al
00001592  0000              add [eax],al
00001594  0000              add [eax],al
00001596  0000              add [eax],al
00001598  0000              add [eax],al
0000159A  0000              add [eax],al
0000159C  0000              add [eax],al
0000159E  0000              add [eax],al
000015A0  0000              add [eax],al
000015A2  0000              add [eax],al
000015A4  0000              add [eax],al
000015A6  0000              add [eax],al
000015A8  0000              add [eax],al
000015AA  0000              add [eax],al
000015AC  0000              add [eax],al
000015AE  0000              add [eax],al
000015B0  0000              add [eax],al
000015B2  0000              add [eax],al
000015B4  0000              add [eax],al
000015B6  0000              add [eax],al
000015B8  0000              add [eax],al
000015BA  0000              add [eax],al
000015BC  0000              add [eax],al
000015BE  0000              add [eax],al
000015C0  0000              add [eax],al
000015C2  0000              add [eax],al
000015C4  0000              add [eax],al
000015C6  0000              add [eax],al
000015C8  0000              add [eax],al
000015CA  0000              add [eax],al
000015CC  0000              add [eax],al
000015CE  0000              add [eax],al
000015D0  0000              add [eax],al
000015D2  0000              add [eax],al
000015D4  0000              add [eax],al
000015D6  0000              add [eax],al
000015D8  0000              add [eax],al
000015DA  0000              add [eax],al
000015DC  0000              add [eax],al
000015DE  0000              add [eax],al
000015E0  0000              add [eax],al
000015E2  0000              add [eax],al
000015E4  0000              add [eax],al
000015E6  0000              add [eax],al
000015E8  0000              add [eax],al
000015EA  0000              add [eax],al
000015EC  0000              add [eax],al
000015EE  0000              add [eax],al
000015F0  0000              add [eax],al
000015F2  0000              add [eax],al
000015F4  0000              add [eax],al
000015F6  0000              add [eax],al
000015F8  0000              add [eax],al
000015FA  0000              add [eax],al
000015FC  0000              add [eax],al
000015FE  0000              add [eax],al
00001600  0000              add [eax],al
00001602  0000              add [eax],al
00001604  0000              add [eax],al
00001606  0000              add [eax],al
00001608  0000              add [eax],al
0000160A  0000              add [eax],al
0000160C  0000              add [eax],al
0000160E  0000              add [eax],al
00001610  0000              add [eax],al
00001612  0000              add [eax],al
00001614  0000              add [eax],al
00001616  0000              add [eax],al
00001618  0000              add [eax],al
0000161A  0000              add [eax],al
0000161C  0000              add [eax],al
0000161E  0000              add [eax],al
00001620  0000              add [eax],al
00001622  0000              add [eax],al
00001624  0000              add [eax],al
00001626  0000              add [eax],al
00001628  0000              add [eax],al
0000162A  0000              add [eax],al
0000162C  0000              add [eax],al
0000162E  0000              add [eax],al
00001630  0000              add [eax],al
00001632  0000              add [eax],al
00001634  0000              add [eax],al
00001636  0000              add [eax],al
00001638  0000              add [eax],al
0000163A  0000              add [eax],al
0000163C  0000              add [eax],al
0000163E  0000              add [eax],al
00001640  0000              add [eax],al
00001642  0000              add [eax],al
00001644  0000              add [eax],al
00001646  0000              add [eax],al
00001648  0000              add [eax],al
0000164A  0000              add [eax],al
0000164C  0000              add [eax],al
0000164E  0000              add [eax],al
00001650  0000              add [eax],al
00001652  0000              add [eax],al
00001654  0000              add [eax],al
00001656  0000              add [eax],al
00001658  0000              add [eax],al
0000165A  0000              add [eax],al
0000165C  0000              add [eax],al
0000165E  0000              add [eax],al
00001660  0000              add [eax],al
00001662  0000              add [eax],al
00001664  0000              add [eax],al
00001666  0000              add [eax],al
00001668  0000              add [eax],al
0000166A  0000              add [eax],al
0000166C  0000              add [eax],al
0000166E  0000              add [eax],al
00001670  0000              add [eax],al
00001672  0000              add [eax],al
00001674  0000              add [eax],al
00001676  0000              add [eax],al
00001678  0000              add [eax],al
0000167A  0000              add [eax],al
0000167C  0000              add [eax],al
0000167E  0000              add [eax],al
00001680  0000              add [eax],al
00001682  0000              add [eax],al
00001684  0000              add [eax],al
00001686  0000              add [eax],al
00001688  0000              add [eax],al
0000168A  0000              add [eax],al
0000168C  0000              add [eax],al
0000168E  0000              add [eax],al
00001690  0000              add [eax],al
00001692  0000              add [eax],al
00001694  0000              add [eax],al
00001696  0000              add [eax],al
00001698  0000              add [eax],al
0000169A  0000              add [eax],al
0000169C  0000              add [eax],al
0000169E  0000              add [eax],al
000016A0  0000              add [eax],al
000016A2  0000              add [eax],al
000016A4  0000              add [eax],al
000016A6  0000              add [eax],al
000016A8  0000              add [eax],al
000016AA  0000              add [eax],al
000016AC  0000              add [eax],al
000016AE  0000              add [eax],al
000016B0  0000              add [eax],al
000016B2  0000              add [eax],al
000016B4  0000              add [eax],al
000016B6  0000              add [eax],al
000016B8  0000              add [eax],al
000016BA  0000              add [eax],al
000016BC  0000              add [eax],al
000016BE  0000              add [eax],al
000016C0  0000              add [eax],al
000016C2  0000              add [eax],al
000016C4  0000              add [eax],al
000016C6  0000              add [eax],al
000016C8  0000              add [eax],al
000016CA  0000              add [eax],al
000016CC  0000              add [eax],al
000016CE  0000              add [eax],al
000016D0  0000              add [eax],al
000016D2  0000              add [eax],al
000016D4  0000              add [eax],al
000016D6  0000              add [eax],al
000016D8  0000              add [eax],al
000016DA  0000              add [eax],al
000016DC  0000              add [eax],al
000016DE  0000              add [eax],al
000016E0  0000              add [eax],al
000016E2  0000              add [eax],al
000016E4  0000              add [eax],al
000016E6  0000              add [eax],al
000016E8  0000              add [eax],al
000016EA  0000              add [eax],al
000016EC  0000              add [eax],al
000016EE  0000              add [eax],al
000016F0  0000              add [eax],al
000016F2  0000              add [eax],al
000016F4  0000              add [eax],al
000016F6  0000              add [eax],al
000016F8  0000              add [eax],al
000016FA  0000              add [eax],al
000016FC  0000              add [eax],al
000016FE  0000              add [eax],al
00001700  0000              add [eax],al
00001702  0000              add [eax],al
00001704  0000              add [eax],al
00001706  0000              add [eax],al
00001708  0000              add [eax],al
0000170A  0000              add [eax],al
0000170C  0000              add [eax],al
0000170E  0000              add [eax],al
00001710  0000              add [eax],al
00001712  0000              add [eax],al
00001714  0000              add [eax],al
00001716  0000              add [eax],al
00001718  0000              add [eax],al
0000171A  0000              add [eax],al
0000171C  0000              add [eax],al
0000171E  0000              add [eax],al
00001720  0000              add [eax],al
00001722  0000              add [eax],al
00001724  0000              add [eax],al
00001726  0000              add [eax],al
00001728  0000              add [eax],al
0000172A  0000              add [eax],al
0000172C  0000              add [eax],al
0000172E  0000              add [eax],al
00001730  0000              add [eax],al
00001732  0000              add [eax],al
00001734  0000              add [eax],al
00001736  0000              add [eax],al
00001738  0000              add [eax],al
0000173A  0000              add [eax],al
0000173C  0000              add [eax],al
0000173E  0000              add [eax],al
00001740  0000              add [eax],al
00001742  0000              add [eax],al
00001744  0000              add [eax],al
00001746  0000              add [eax],al
00001748  0000              add [eax],al
0000174A  0000              add [eax],al
0000174C  0000              add [eax],al
0000174E  0000              add [eax],al
00001750  0000              add [eax],al
00001752  0000              add [eax],al
00001754  0000              add [eax],al
00001756  0000              add [eax],al
00001758  0000              add [eax],al
0000175A  0000              add [eax],al
0000175C  0000              add [eax],al
0000175E  0000              add [eax],al
00001760  0000              add [eax],al
00001762  0000              add [eax],al
00001764  0000              add [eax],al
00001766  0000              add [eax],al
00001768  0000              add [eax],al
0000176A  0000              add [eax],al
0000176C  0000              add [eax],al
0000176E  0000              add [eax],al
00001770  0000              add [eax],al
00001772  0000              add [eax],al
00001774  0000              add [eax],al
00001776  0000              add [eax],al
00001778  0000              add [eax],al
0000177A  0000              add [eax],al
0000177C  0000              add [eax],al
0000177E  0000              add [eax],al
00001780  0000              add [eax],al
00001782  0000              add [eax],al
00001784  0000              add [eax],al
00001786  0000              add [eax],al
00001788  0000              add [eax],al
0000178A  0000              add [eax],al
0000178C  0000              add [eax],al
0000178E  0000              add [eax],al
00001790  0000              add [eax],al
00001792  0000              add [eax],al
00001794  0000              add [eax],al
00001796  0000              add [eax],al
00001798  0000              add [eax],al
0000179A  0000              add [eax],al
0000179C  0000              add [eax],al
0000179E  0000              add [eax],al
000017A0  0000              add [eax],al
000017A2  0000              add [eax],al
000017A4  0000              add [eax],al
000017A6  0000              add [eax],al
000017A8  0000              add [eax],al
000017AA  0000              add [eax],al
000017AC  0000              add [eax],al
000017AE  0000              add [eax],al
000017B0  0000              add [eax],al
000017B2  0000              add [eax],al
000017B4  0000              add [eax],al
000017B6  0000              add [eax],al
000017B8  0000              add [eax],al
000017BA  0000              add [eax],al
000017BC  0000              add [eax],al
000017BE  0000              add [eax],al
000017C0  0000              add [eax],al
000017C2  0000              add [eax],al
000017C4  0000              add [eax],al
000017C6  0000              add [eax],al
000017C8  0000              add [eax],al
000017CA  0000              add [eax],al
000017CC  0000              add [eax],al
000017CE  0000              add [eax],al
000017D0  0000              add [eax],al
000017D2  0000              add [eax],al
000017D4  0000              add [eax],al
000017D6  0000              add [eax],al
000017D8  0000              add [eax],al
000017DA  0000              add [eax],al
000017DC  0000              add [eax],al
000017DE  0000              add [eax],al
000017E0  0000              add [eax],al
000017E2  0000              add [eax],al
000017E4  0000              add [eax],al
000017E6  0000              add [eax],al
000017E8  0000              add [eax],al
000017EA  0000              add [eax],al
000017EC  0000              add [eax],al
000017EE  0000              add [eax],al
000017F0  0000              add [eax],al
000017F2  0000              add [eax],al
000017F4  0000              add [eax],al
000017F6  0000              add [eax],al
000017F8  0000              add [eax],al
000017FA  0000              add [eax],al
000017FC  0000              add [eax],al
000017FE  0000              add [eax],al
00001800  0000              add [eax],al
00001802  0000              add [eax],al
00001804  0000              add [eax],al
00001806  0000              add [eax],al
00001808  0000              add [eax],al
0000180A  0000              add [eax],al
0000180C  0000              add [eax],al
0000180E  0000              add [eax],al
00001810  0000              add [eax],al
00001812  0000              add [eax],al
00001814  0000              add [eax],al
00001816  0000              add [eax],al
00001818  0000              add [eax],al
0000181A  0000              add [eax],al
0000181C  0000              add [eax],al
0000181E  0000              add [eax],al
00001820  0000              add [eax],al
00001822  0000              add [eax],al
00001824  0000              add [eax],al
00001826  0000              add [eax],al
00001828  0000              add [eax],al
0000182A  0000              add [eax],al
0000182C  0000              add [eax],al
0000182E  0000              add [eax],al
00001830  0000              add [eax],al
00001832  0000              add [eax],al
00001834  0000              add [eax],al
00001836  0000              add [eax],al
00001838  0000              add [eax],al
0000183A  0000              add [eax],al
0000183C  0000              add [eax],al
0000183E  0000              add [eax],al
00001840  0000              add [eax],al
00001842  0000              add [eax],al
00001844  0000              add [eax],al
00001846  0000              add [eax],al
00001848  0000              add [eax],al
0000184A  0000              add [eax],al
0000184C  0000              add [eax],al
0000184E  0000              add [eax],al
00001850  0000              add [eax],al
00001852  0000              add [eax],al
00001854  0000              add [eax],al
00001856  0000              add [eax],al
00001858  0000              add [eax],al
0000185A  0000              add [eax],al
0000185C  0000              add [eax],al
0000185E  0000              add [eax],al
00001860  0000              add [eax],al
00001862  0000              add [eax],al
00001864  0000              add [eax],al
00001866  0000              add [eax],al
00001868  0000              add [eax],al
0000186A  0000              add [eax],al
0000186C  0000              add [eax],al
0000186E  0000              add [eax],al
00001870  0000              add [eax],al
00001872  0000              add [eax],al
00001874  0000              add [eax],al
00001876  0000              add [eax],al
00001878  0000              add [eax],al
0000187A  0000              add [eax],al
0000187C  0000              add [eax],al
0000187E  0000              add [eax],al
00001880  0000              add [eax],al
00001882  0000              add [eax],al
00001884  0000              add [eax],al
00001886  0000              add [eax],al
00001888  0000              add [eax],al
0000188A  0000              add [eax],al
0000188C  0000              add [eax],al
0000188E  0000              add [eax],al
00001890  0000              add [eax],al
00001892  0000              add [eax],al
00001894  0000              add [eax],al
00001896  0000              add [eax],al
00001898  0000              add [eax],al
0000189A  0000              add [eax],al
0000189C  0000              add [eax],al
0000189E  0000              add [eax],al
000018A0  0000              add [eax],al
000018A2  0000              add [eax],al
000018A4  0000              add [eax],al
000018A6  0000              add [eax],al
000018A8  0000              add [eax],al
000018AA  0000              add [eax],al
000018AC  0000              add [eax],al
000018AE  0000              add [eax],al
000018B0  0000              add [eax],al
000018B2  0000              add [eax],al
000018B4  0000              add [eax],al
000018B6  0000              add [eax],al
000018B8  0000              add [eax],al
000018BA  0000              add [eax],al
000018BC  0000              add [eax],al
000018BE  0000              add [eax],al
000018C0  0000              add [eax],al
000018C2  0000              add [eax],al
000018C4  0000              add [eax],al
000018C6  0000              add [eax],al
000018C8  0000              add [eax],al
000018CA  0000              add [eax],al
000018CC  0000              add [eax],al
000018CE  0000              add [eax],al
000018D0  0000              add [eax],al
000018D2  0000              add [eax],al
000018D4  0000              add [eax],al
000018D6  0000              add [eax],al
000018D8  0000              add [eax],al
000018DA  0000              add [eax],al
000018DC  0000              add [eax],al
000018DE  0000              add [eax],al
000018E0  0000              add [eax],al
000018E2  0000              add [eax],al
000018E4  0000              add [eax],al
000018E6  0000              add [eax],al
000018E8  0000              add [eax],al
000018EA  0000              add [eax],al
000018EC  0000              add [eax],al
000018EE  0000              add [eax],al
000018F0  0000              add [eax],al
000018F2  0000              add [eax],al
000018F4  0000              add [eax],al
000018F6  0000              add [eax],al
000018F8  0000              add [eax],al
000018FA  0000              add [eax],al
000018FC  0000              add [eax],al
000018FE  0000              add [eax],al
00001900  0000              add [eax],al
00001902  0000              add [eax],al
00001904  0000              add [eax],al
00001906  0000              add [eax],al
00001908  0000              add [eax],al
0000190A  0000              add [eax],al
0000190C  0000              add [eax],al
0000190E  0000              add [eax],al
00001910  0000              add [eax],al
00001912  0000              add [eax],al
00001914  0000              add [eax],al
00001916  0000              add [eax],al
00001918  0000              add [eax],al
0000191A  0000              add [eax],al
0000191C  0000              add [eax],al
0000191E  0000              add [eax],al
00001920  0000              add [eax],al
00001922  0000              add [eax],al
00001924  0000              add [eax],al
00001926  0000              add [eax],al
00001928  0000              add [eax],al
0000192A  0000              add [eax],al
0000192C  0000              add [eax],al
0000192E  0000              add [eax],al
00001930  0000              add [eax],al
00001932  0000              add [eax],al
00001934  0000              add [eax],al
00001936  0000              add [eax],al
00001938  0000              add [eax],al
0000193A  0000              add [eax],al
0000193C  0000              add [eax],al
0000193E  0000              add [eax],al
00001940  0000              add [eax],al
00001942  0000              add [eax],al
00001944  0000              add [eax],al
00001946  0000              add [eax],al
00001948  0000              add [eax],al
0000194A  0000              add [eax],al
0000194C  0000              add [eax],al
0000194E  0000              add [eax],al
00001950  0000              add [eax],al
00001952  0000              add [eax],al
00001954  0000              add [eax],al
00001956  0000              add [eax],al
00001958  0000              add [eax],al
0000195A  0000              add [eax],al
0000195C  0000              add [eax],al
0000195E  0000              add [eax],al
00001960  0000              add [eax],al
00001962  0000              add [eax],al
00001964  0000              add [eax],al
00001966  0000              add [eax],al
00001968  0000              add [eax],al
0000196A  0000              add [eax],al
0000196C  0000              add [eax],al
0000196E  0000              add [eax],al
00001970  0000              add [eax],al
00001972  0000              add [eax],al
00001974  0000              add [eax],al
00001976  0000              add [eax],al
00001978  0000              add [eax],al
0000197A  0000              add [eax],al
0000197C  0000              add [eax],al
0000197E  0000              add [eax],al
00001980  0000              add [eax],al
00001982  0000              add [eax],al
00001984  0000              add [eax],al
00001986  0000              add [eax],al
00001988  0000              add [eax],al
0000198A  0000              add [eax],al
0000198C  0000              add [eax],al
0000198E  0000              add [eax],al
00001990  0000              add [eax],al
00001992  0000              add [eax],al
00001994  0000              add [eax],al
00001996  0000              add [eax],al
00001998  0000              add [eax],al
0000199A  0000              add [eax],al
0000199C  0000              add [eax],al
0000199E  0000              add [eax],al
000019A0  0000              add [eax],al
000019A2  0000              add [eax],al
000019A4  0000              add [eax],al
000019A6  0000              add [eax],al
000019A8  0000              add [eax],al
000019AA  0000              add [eax],al
000019AC  0000              add [eax],al
000019AE  0000              add [eax],al
000019B0  0000              add [eax],al
000019B2  0000              add [eax],al
000019B4  0000              add [eax],al
000019B6  0000              add [eax],al
000019B8  0000              add [eax],al
000019BA  0000              add [eax],al
000019BC  0000              add [eax],al
000019BE  0000              add [eax],al
000019C0  0000              add [eax],al
000019C2  0000              add [eax],al
000019C4  0000              add [eax],al
000019C6  0000              add [eax],al
000019C8  0000              add [eax],al
000019CA  0000              add [eax],al
000019CC  0000              add [eax],al
000019CE  0000              add [eax],al
000019D0  0000              add [eax],al
000019D2  0000              add [eax],al
000019D4  0000              add [eax],al
000019D6  0000              add [eax],al
000019D8  0000              add [eax],al
000019DA  0000              add [eax],al
000019DC  0000              add [eax],al
000019DE  0000              add [eax],al
000019E0  0000              add [eax],al
000019E2  0000              add [eax],al
000019E4  0000              add [eax],al
000019E6  0000              add [eax],al
000019E8  0000              add [eax],al
000019EA  0000              add [eax],al
000019EC  0000              add [eax],al
000019EE  0000              add [eax],al
000019F0  0000              add [eax],al
000019F2  0000              add [eax],al
000019F4  0000              add [eax],al
000019F6  0000              add [eax],al
000019F8  0000              add [eax],al
000019FA  0000              add [eax],al
000019FC  0000              add [eax],al
000019FE  0000              add [eax],al
00001A00  0000              add [eax],al
00001A02  0000              add [eax],al
00001A04  0000              add [eax],al
00001A06  0000              add [eax],al
00001A08  0000              add [eax],al
00001A0A  0000              add [eax],al
00001A0C  0000              add [eax],al
00001A0E  0000              add [eax],al
00001A10  0000              add [eax],al
00001A12  0000              add [eax],al
00001A14  0000              add [eax],al
00001A16  0000              add [eax],al
00001A18  0000              add [eax],al
00001A1A  0000              add [eax],al
00001A1C  0000              add [eax],al
00001A1E  0000              add [eax],al
00001A20  0000              add [eax],al
00001A22  0000              add [eax],al
00001A24  0000              add [eax],al
00001A26  0000              add [eax],al
00001A28  0000              add [eax],al
00001A2A  0000              add [eax],al
00001A2C  0000              add [eax],al
00001A2E  0000              add [eax],al
00001A30  0000              add [eax],al
00001A32  0000              add [eax],al
00001A34  0000              add [eax],al
00001A36  0000              add [eax],al
00001A38  0000              add [eax],al
00001A3A  0000              add [eax],al
00001A3C  0000              add [eax],al
00001A3E  0000              add [eax],al
00001A40  0000              add [eax],al
00001A42  0000              add [eax],al
00001A44  0000              add [eax],al
00001A46  0000              add [eax],al
00001A48  0000              add [eax],al
00001A4A  0000              add [eax],al
00001A4C  0000              add [eax],al
00001A4E  0000              add [eax],al
00001A50  0000              add [eax],al
00001A52  0000              add [eax],al
00001A54  0000              add [eax],al
00001A56  0000              add [eax],al
00001A58  0000              add [eax],al
00001A5A  0000              add [eax],al
00001A5C  0000              add [eax],al
00001A5E  0000              add [eax],al
00001A60  0000              add [eax],al
00001A62  0000              add [eax],al
00001A64  0000              add [eax],al
00001A66  0000              add [eax],al
00001A68  0000              add [eax],al
00001A6A  0000              add [eax],al
00001A6C  0000              add [eax],al
00001A6E  0000              add [eax],al
00001A70  0000              add [eax],al
00001A72  0000              add [eax],al
00001A74  0000              add [eax],al
00001A76  0000              add [eax],al
00001A78  0000              add [eax],al
00001A7A  0000              add [eax],al
00001A7C  0000              add [eax],al
00001A7E  0000              add [eax],al
00001A80  0000              add [eax],al
00001A82  0000              add [eax],al
00001A84  0000              add [eax],al
00001A86  0000              add [eax],al
00001A88  0000              add [eax],al
00001A8A  0000              add [eax],al
00001A8C  0000              add [eax],al
00001A8E  0000              add [eax],al
00001A90  0000              add [eax],al
00001A92  0000              add [eax],al
00001A94  0000              add [eax],al
00001A96  0000              add [eax],al
00001A98  0000              add [eax],al
00001A9A  0000              add [eax],al
00001A9C  0000              add [eax],al
00001A9E  0000              add [eax],al
00001AA0  0000              add [eax],al
00001AA2  0000              add [eax],al
00001AA4  0000              add [eax],al
00001AA6  0000              add [eax],al
00001AA8  0000              add [eax],al
00001AAA  0000              add [eax],al
00001AAC  0000              add [eax],al
00001AAE  0000              add [eax],al
00001AB0  0000              add [eax],al
00001AB2  0000              add [eax],al
00001AB4  0000              add [eax],al
00001AB6  0000              add [eax],al
00001AB8  0000              add [eax],al
00001ABA  0000              add [eax],al
00001ABC  0000              add [eax],al
00001ABE  0000              add [eax],al
00001AC0  0000              add [eax],al
00001AC2  0000              add [eax],al
00001AC4  0000              add [eax],al
00001AC6  0000              add [eax],al
00001AC8  0000              add [eax],al
00001ACA  0000              add [eax],al
00001ACC  0000              add [eax],al
00001ACE  0000              add [eax],al
00001AD0  0000              add [eax],al
00001AD2  0000              add [eax],al
00001AD4  0000              add [eax],al
00001AD6  0000              add [eax],al
00001AD8  0000              add [eax],al
00001ADA  0000              add [eax],al
00001ADC  0000              add [eax],al
00001ADE  0000              add [eax],al
00001AE0  0000              add [eax],al
00001AE2  0000              add [eax],al
00001AE4  0000              add [eax],al
00001AE6  0000              add [eax],al
00001AE8  0000              add [eax],al
00001AEA  0000              add [eax],al
00001AEC  0000              add [eax],al
00001AEE  0000              add [eax],al
00001AF0  0000              add [eax],al
00001AF2  0000              add [eax],al
00001AF4  0000              add [eax],al
00001AF6  0000              add [eax],al
00001AF8  0000              add [eax],al
00001AFA  0000              add [eax],al
00001AFC  0000              add [eax],al
00001AFE  0000              add [eax],al
00001B00  0000              add [eax],al
00001B02  0000              add [eax],al
00001B04  0000              add [eax],al
00001B06  0000              add [eax],al
00001B08  0000              add [eax],al
00001B0A  0000              add [eax],al
00001B0C  0000              add [eax],al
00001B0E  0000              add [eax],al
00001B10  0000              add [eax],al
00001B12  0000              add [eax],al
00001B14  0000              add [eax],al
00001B16  0000              add [eax],al
00001B18  0000              add [eax],al
00001B1A  0000              add [eax],al
00001B1C  0000              add [eax],al
00001B1E  0000              add [eax],al
00001B20  0000              add [eax],al
00001B22  0000              add [eax],al
00001B24  0000              add [eax],al
00001B26  0000              add [eax],al
00001B28  0000              add [eax],al
00001B2A  0000              add [eax],al
00001B2C  0000              add [eax],al
00001B2E  0000              add [eax],al
00001B30  0000              add [eax],al
00001B32  0000              add [eax],al
00001B34  0000              add [eax],al
00001B36  0000              add [eax],al
00001B38  0000              add [eax],al
00001B3A  0000              add [eax],al
00001B3C  0000              add [eax],al
00001B3E  0000              add [eax],al
00001B40  0000              add [eax],al
00001B42  0000              add [eax],al
00001B44  0000              add [eax],al
00001B46  0000              add [eax],al
00001B48  0000              add [eax],al
00001B4A  0000              add [eax],al
00001B4C  0000              add [eax],al
00001B4E  0000              add [eax],al
00001B50  0000              add [eax],al
00001B52  0000              add [eax],al
00001B54  0000              add [eax],al
00001B56  0000              add [eax],al
00001B58  0000              add [eax],al
00001B5A  0000              add [eax],al
00001B5C  0000              add [eax],al
00001B5E  0000              add [eax],al
00001B60  0000              add [eax],al
00001B62  0000              add [eax],al
00001B64  0000              add [eax],al
00001B66  0000              add [eax],al
00001B68  0000              add [eax],al
00001B6A  0000              add [eax],al
00001B6C  0000              add [eax],al
00001B6E  0000              add [eax],al
00001B70  0000              add [eax],al
00001B72  0000              add [eax],al
00001B74  0000              add [eax],al
00001B76  0000              add [eax],al
00001B78  0000              add [eax],al
00001B7A  0000              add [eax],al
00001B7C  0000              add [eax],al
00001B7E  0000              add [eax],al
00001B80  0000              add [eax],al
00001B82  0000              add [eax],al
00001B84  0000              add [eax],al
00001B86  0000              add [eax],al
00001B88  0000              add [eax],al
00001B8A  0000              add [eax],al
00001B8C  0000              add [eax],al
00001B8E  0000              add [eax],al
00001B90  0000              add [eax],al
00001B92  0000              add [eax],al
00001B94  0000              add [eax],al
00001B96  0000              add [eax],al
00001B98  0000              add [eax],al
00001B9A  0000              add [eax],al
00001B9C  0000              add [eax],al
00001B9E  0000              add [eax],al
00001BA0  0000              add [eax],al
00001BA2  0000              add [eax],al
00001BA4  0000              add [eax],al
00001BA6  0000              add [eax],al
00001BA8  0000              add [eax],al
00001BAA  0000              add [eax],al
00001BAC  0000              add [eax],al
00001BAE  0000              add [eax],al
00001BB0  0000              add [eax],al
00001BB2  0000              add [eax],al
00001BB4  0000              add [eax],al
00001BB6  0000              add [eax],al
00001BB8  0000              add [eax],al
00001BBA  0000              add [eax],al
00001BBC  0000              add [eax],al
00001BBE  0000              add [eax],al
00001BC0  0000              add [eax],al
00001BC2  0000              add [eax],al
00001BC4  0000              add [eax],al
00001BC6  0000              add [eax],al
00001BC8  0000              add [eax],al
00001BCA  0000              add [eax],al
00001BCC  0000              add [eax],al
00001BCE  0000              add [eax],al
00001BD0  0000              add [eax],al
00001BD2  0000              add [eax],al
00001BD4  0000              add [eax],al
00001BD6  0000              add [eax],al
00001BD8  0000              add [eax],al
00001BDA  0000              add [eax],al
00001BDC  0000              add [eax],al
00001BDE  0000              add [eax],al
00001BE0  0000              add [eax],al
00001BE2  0000              add [eax],al
00001BE4  0000              add [eax],al
00001BE6  0000              add [eax],al
00001BE8  0000              add [eax],al
00001BEA  0000              add [eax],al
00001BEC  0000              add [eax],al
00001BEE  0000              add [eax],al
00001BF0  0000              add [eax],al
00001BF2  0000              add [eax],al
00001BF4  0000              add [eax],al
00001BF6  0000              add [eax],al
00001BF8  0000              add [eax],al
00001BFA  0000              add [eax],al
00001BFC  0000              add [eax],al
00001BFE  0000              add [eax],al
00001C00  0000              add [eax],al
00001C02  0000              add [eax],al
00001C04  0000              add [eax],al
00001C06  0000              add [eax],al
00001C08  0000              add [eax],al
00001C0A  0000              add [eax],al
00001C0C  0000              add [eax],al
00001C0E  0000              add [eax],al
00001C10  0000              add [eax],al
00001C12  0000              add [eax],al
00001C14  0000              add [eax],al
00001C16  0000              add [eax],al
00001C18  0000              add [eax],al
00001C1A  0000              add [eax],al
00001C1C  0000              add [eax],al
00001C1E  0000              add [eax],al
00001C20  0000              add [eax],al
00001C22  0000              add [eax],al
00001C24  0000              add [eax],al
00001C26  0000              add [eax],al
00001C28  0000              add [eax],al
00001C2A  0000              add [eax],al
00001C2C  0000              add [eax],al
00001C2E  0000              add [eax],al
00001C30  0000              add [eax],al
00001C32  0000              add [eax],al
00001C34  0000              add [eax],al
00001C36  0000              add [eax],al
00001C38  0000              add [eax],al
00001C3A  0000              add [eax],al
00001C3C  0000              add [eax],al
00001C3E  0000              add [eax],al
00001C40  0000              add [eax],al
00001C42  0000              add [eax],al
00001C44  0000              add [eax],al
00001C46  0000              add [eax],al
00001C48  0000              add [eax],al
00001C4A  0000              add [eax],al
00001C4C  0000              add [eax],al
00001C4E  0000              add [eax],al
00001C50  0000              add [eax],al
00001C52  0000              add [eax],al
00001C54  0000              add [eax],al
00001C56  0000              add [eax],al
00001C58  0000              add [eax],al
00001C5A  0000              add [eax],al
00001C5C  0000              add [eax],al
00001C5E  0000              add [eax],al
00001C60  0000              add [eax],al
00001C62  0000              add [eax],al
00001C64  0000              add [eax],al
00001C66  0000              add [eax],al
00001C68  0000              add [eax],al
00001C6A  0000              add [eax],al
00001C6C  0000              add [eax],al
00001C6E  0000              add [eax],al
00001C70  0000              add [eax],al
00001C72  0000              add [eax],al
00001C74  0000              add [eax],al
00001C76  0000              add [eax],al
00001C78  0000              add [eax],al
00001C7A  0000              add [eax],al
00001C7C  0000              add [eax],al
00001C7E  0000              add [eax],al
00001C80  0000              add [eax],al
00001C82  0000              add [eax],al
00001C84  0000              add [eax],al
00001C86  0000              add [eax],al
00001C88  0000              add [eax],al
00001C8A  0000              add [eax],al
00001C8C  0000              add [eax],al
00001C8E  0000              add [eax],al
00001C90  0000              add [eax],al
00001C92  0000              add [eax],al
00001C94  0000              add [eax],al
00001C96  0000              add [eax],al
00001C98  0000              add [eax],al
00001C9A  0000              add [eax],al
00001C9C  0000              add [eax],al
00001C9E  0000              add [eax],al
00001CA0  0000              add [eax],al
00001CA2  0000              add [eax],al
00001CA4  0000              add [eax],al
00001CA6  0000              add [eax],al
00001CA8  0000              add [eax],al
00001CAA  0000              add [eax],al
00001CAC  0000              add [eax],al
00001CAE  0000              add [eax],al
00001CB0  0000              add [eax],al
00001CB2  0000              add [eax],al
00001CB4  0000              add [eax],al
00001CB6  0000              add [eax],al
00001CB8  0000              add [eax],al
00001CBA  0000              add [eax],al
00001CBC  0000              add [eax],al
00001CBE  0000              add [eax],al
00001CC0  0000              add [eax],al
00001CC2  0000              add [eax],al
00001CC4  0000              add [eax],al
00001CC6  0000              add [eax],al
00001CC8  0000              add [eax],al
00001CCA  0000              add [eax],al
00001CCC  0000              add [eax],al
00001CCE  0000              add [eax],al
00001CD0  0000              add [eax],al
00001CD2  0000              add [eax],al
00001CD4  0000              add [eax],al
00001CD6  0000              add [eax],al
00001CD8  0000              add [eax],al
00001CDA  0000              add [eax],al
00001CDC  0000              add [eax],al
00001CDE  0000              add [eax],al
00001CE0  0000              add [eax],al
00001CE2  0000              add [eax],al
00001CE4  0000              add [eax],al
00001CE6  0000              add [eax],al
00001CE8  0000              add [eax],al
00001CEA  0000              add [eax],al
00001CEC  0000              add [eax],al
00001CEE  0000              add [eax],al
00001CF0  0000              add [eax],al
00001CF2  0000              add [eax],al
00001CF4  0000              add [eax],al
00001CF6  0000              add [eax],al
00001CF8  0000              add [eax],al
00001CFA  0000              add [eax],al
00001CFC  0000              add [eax],al
00001CFE  0000              add [eax],al
00001D00  0000              add [eax],al
00001D02  0000              add [eax],al
00001D04  0000              add [eax],al
00001D06  0000              add [eax],al
00001D08  0000              add [eax],al
00001D0A  0000              add [eax],al
00001D0C  0000              add [eax],al
00001D0E  0000              add [eax],al
00001D10  0000              add [eax],al
00001D12  0000              add [eax],al
00001D14  0000              add [eax],al
00001D16  0000              add [eax],al
00001D18  0000              add [eax],al
00001D1A  0000              add [eax],al
00001D1C  0000              add [eax],al
00001D1E  0000              add [eax],al
00001D20  0000              add [eax],al
00001D22  0000              add [eax],al
00001D24  0000              add [eax],al
00001D26  0000              add [eax],al
00001D28  0000              add [eax],al
00001D2A  0000              add [eax],al
00001D2C  0000              add [eax],al
00001D2E  0000              add [eax],al
00001D30  0000              add [eax],al
00001D32  0000              add [eax],al
00001D34  0000              add [eax],al
00001D36  0000              add [eax],al
00001D38  0000              add [eax],al
00001D3A  0000              add [eax],al
00001D3C  0000              add [eax],al
00001D3E  0000              add [eax],al
00001D40  0000              add [eax],al
00001D42  0000              add [eax],al
00001D44  0000              add [eax],al
00001D46  0000              add [eax],al
00001D48  0000              add [eax],al
00001D4A  0000              add [eax],al
00001D4C  0000              add [eax],al
00001D4E  0000              add [eax],al
00001D50  0000              add [eax],al
00001D52  0000              add [eax],al
00001D54  0000              add [eax],al
00001D56  0000              add [eax],al
00001D58  0000              add [eax],al
00001D5A  0000              add [eax],al
00001D5C  0000              add [eax],al
00001D5E  0000              add [eax],al
00001D60  0000              add [eax],al
00001D62  0000              add [eax],al
00001D64  0000              add [eax],al
00001D66  0000              add [eax],al
00001D68  0000              add [eax],al
00001D6A  0000              add [eax],al
00001D6C  0000              add [eax],al
00001D6E  0000              add [eax],al
00001D70  0000              add [eax],al
00001D72  0000              add [eax],al
00001D74  0000              add [eax],al
00001D76  0000              add [eax],al
00001D78  0000              add [eax],al
00001D7A  0000              add [eax],al
00001D7C  0000              add [eax],al
00001D7E  0000              add [eax],al
00001D80  0000              add [eax],al
00001D82  0000              add [eax],al
00001D84  0000              add [eax],al
00001D86  0000              add [eax],al
00001D88  0000              add [eax],al
00001D8A  0000              add [eax],al
00001D8C  0000              add [eax],al
00001D8E  0000              add [eax],al
00001D90  0000              add [eax],al
00001D92  0000              add [eax],al
00001D94  0000              add [eax],al
00001D96  0000              add [eax],al
00001D98  0000              add [eax],al
00001D9A  0000              add [eax],al
00001D9C  0000              add [eax],al
00001D9E  0000              add [eax],al
00001DA0  0000              add [eax],al
00001DA2  0000              add [eax],al
00001DA4  0000              add [eax],al
00001DA6  0000              add [eax],al
00001DA8  0000              add [eax],al
00001DAA  0000              add [eax],al
00001DAC  0000              add [eax],al
00001DAE  0000              add [eax],al
00001DB0  0000              add [eax],al
00001DB2  0000              add [eax],al
00001DB4  0000              add [eax],al
00001DB6  0000              add [eax],al
00001DB8  0000              add [eax],al
00001DBA  0000              add [eax],al
00001DBC  0000              add [eax],al
00001DBE  0000              add [eax],al
00001DC0  0000              add [eax],al
00001DC2  0000              add [eax],al
00001DC4  0000              add [eax],al
00001DC6  0000              add [eax],al
00001DC8  0000              add [eax],al
00001DCA  0000              add [eax],al
00001DCC  0000              add [eax],al
00001DCE  0000              add [eax],al
00001DD0  0000              add [eax],al
00001DD2  0000              add [eax],al
00001DD4  0000              add [eax],al
00001DD6  0000              add [eax],al
00001DD8  0000              add [eax],al
00001DDA  0000              add [eax],al
00001DDC  0000              add [eax],al
00001DDE  0000              add [eax],al
00001DE0  0000              add [eax],al
00001DE2  0000              add [eax],al
00001DE4  0000              add [eax],al
00001DE6  0000              add [eax],al
00001DE8  0000              add [eax],al
00001DEA  0000              add [eax],al
00001DEC  0000              add [eax],al
00001DEE  0000              add [eax],al
00001DF0  0000              add [eax],al
00001DF2  0000              add [eax],al
00001DF4  0000              add [eax],al
00001DF6  0000              add [eax],al
00001DF8  0000              add [eax],al
00001DFA  0000              add [eax],al
00001DFC  0000              add [eax],al
00001DFE  0000              add [eax],al
00001E00  0000              add [eax],al
00001E02  0000              add [eax],al
00001E04  0000              add [eax],al
00001E06  0000              add [eax],al
00001E08  0000              add [eax],al
00001E0A  0000              add [eax],al
00001E0C  0000              add [eax],al
00001E0E  0000              add [eax],al
00001E10  0000              add [eax],al
00001E12  0000              add [eax],al
00001E14  0000              add [eax],al
00001E16  0000              add [eax],al
00001E18  0000              add [eax],al
00001E1A  0000              add [eax],al
00001E1C  0000              add [eax],al
00001E1E  0000              add [eax],al
00001E20  0000              add [eax],al
00001E22  0000              add [eax],al
00001E24  0000              add [eax],al
00001E26  0000              add [eax],al
00001E28  0000              add [eax],al
00001E2A  0000              add [eax],al
00001E2C  0000              add [eax],al
00001E2E  0000              add [eax],al
00001E30  0000              add [eax],al
00001E32  0000              add [eax],al
00001E34  0000              add [eax],al
00001E36  0000              add [eax],al
00001E38  0000              add [eax],al
00001E3A  0000              add [eax],al
00001E3C  0000              add [eax],al
00001E3E  0000              add [eax],al
00001E40  0000              add [eax],al
00001E42  0000              add [eax],al
00001E44  0000              add [eax],al
00001E46  0000              add [eax],al
00001E48  0000              add [eax],al
00001E4A  0000              add [eax],al
00001E4C  0000              add [eax],al
00001E4E  0000              add [eax],al
00001E50  0000              add [eax],al
00001E52  0000              add [eax],al
00001E54  0000              add [eax],al
00001E56  0000              add [eax],al
00001E58  0000              add [eax],al
00001E5A  0000              add [eax],al
00001E5C  0000              add [eax],al
00001E5E  0000              add [eax],al
00001E60  0000              add [eax],al
00001E62  0000              add [eax],al
00001E64  0000              add [eax],al
00001E66  0000              add [eax],al
00001E68  0000              add [eax],al
00001E6A  0000              add [eax],al
00001E6C  0000              add [eax],al
00001E6E  0000              add [eax],al
00001E70  0000              add [eax],al
00001E72  0000              add [eax],al
00001E74  0000              add [eax],al
00001E76  0000              add [eax],al
00001E78  0000              add [eax],al
00001E7A  0000              add [eax],al
00001E7C  0000              add [eax],al
00001E7E  0000              add [eax],al
00001E80  0000              add [eax],al
00001E82  0000              add [eax],al
00001E84  0000              add [eax],al
00001E86  0000              add [eax],al
00001E88  0000              add [eax],al
00001E8A  0000              add [eax],al
00001E8C  0000              add [eax],al
00001E8E  0000              add [eax],al
00001E90  0000              add [eax],al
00001E92  0000              add [eax],al
00001E94  0000              add [eax],al
00001E96  0000              add [eax],al
00001E98  0000              add [eax],al
00001E9A  0000              add [eax],al
00001E9C  0000              add [eax],al
00001E9E  0000              add [eax],al
00001EA0  0000              add [eax],al
00001EA2  0000              add [eax],al
00001EA4  0000              add [eax],al
00001EA6  0000              add [eax],al
00001EA8  0000              add [eax],al
00001EAA  0000              add [eax],al
00001EAC  0000              add [eax],al
00001EAE  0000              add [eax],al
00001EB0  0000              add [eax],al
00001EB2  0000              add [eax],al
00001EB4  0000              add [eax],al
00001EB6  0000              add [eax],al
00001EB8  0000              add [eax],al
00001EBA  0000              add [eax],al
00001EBC  0000              add [eax],al
00001EBE  0000              add [eax],al
00001EC0  0000              add [eax],al
00001EC2  0000              add [eax],al
00001EC4  0000              add [eax],al
00001EC6  0000              add [eax],al
00001EC8  0000              add [eax],al
00001ECA  0000              add [eax],al
00001ECC  0000              add [eax],al
00001ECE  0000              add [eax],al
00001ED0  0000              add [eax],al
00001ED2  0000              add [eax],al
00001ED4  0000              add [eax],al
00001ED6  0000              add [eax],al
00001ED8  0000              add [eax],al
00001EDA  0000              add [eax],al
00001EDC  0000              add [eax],al
00001EDE  0000              add [eax],al
00001EE0  0000              add [eax],al
00001EE2  0000              add [eax],al
00001EE4  0000              add [eax],al
00001EE6  0000              add [eax],al
00001EE8  0000              add [eax],al
00001EEA  0000              add [eax],al
00001EEC  0000              add [eax],al
00001EEE  0000              add [eax],al
00001EF0  0000              add [eax],al
00001EF2  0000              add [eax],al
00001EF4  0000              add [eax],al
00001EF6  0000              add [eax],al
00001EF8  0000              add [eax],al
00001EFA  0000              add [eax],al
00001EFC  0000              add [eax],al
00001EFE  0000              add [eax],al
00001F00  0000              add [eax],al
00001F02  0000              add [eax],al
00001F04  0000              add [eax],al
00001F06  0000              add [eax],al
00001F08  0000              add [eax],al
00001F0A  0000              add [eax],al
00001F0C  0000              add [eax],al
00001F0E  0000              add [eax],al
00001F10  0000              add [eax],al
00001F12  0000              add [eax],al
00001F14  0000              add [eax],al
00001F16  0000              add [eax],al
00001F18  0000              add [eax],al
00001F1A  0000              add [eax],al
00001F1C  0000              add [eax],al
00001F1E  0000              add [eax],al
00001F20  0000              add [eax],al
00001F22  0000              add [eax],al
00001F24  0000              add [eax],al
00001F26  0000              add [eax],al
00001F28  0000              add [eax],al
00001F2A  0000              add [eax],al
00001F2C  0000              add [eax],al
00001F2E  0000              add [eax],al
00001F30  0000              add [eax],al
00001F32  0000              add [eax],al
00001F34  0000              add [eax],al
00001F36  0000              add [eax],al
00001F38  0000              add [eax],al
00001F3A  0000              add [eax],al
00001F3C  0000              add [eax],al
00001F3E  0000              add [eax],al
00001F40  0000              add [eax],al
00001F42  0000              add [eax],al
00001F44  0000              add [eax],al
00001F46  0000              add [eax],al
00001F48  0000              add [eax],al
00001F4A  0000              add [eax],al
00001F4C  0000              add [eax],al
00001F4E  0000              add [eax],al
00001F50  0000              add [eax],al
00001F52  0000              add [eax],al
00001F54  0000              add [eax],al
00001F56  0000              add [eax],al
00001F58  0000              add [eax],al
00001F5A  0000              add [eax],al
00001F5C  0000              add [eax],al
00001F5E  0000              add [eax],al
00001F60  0000              add [eax],al
00001F62  0000              add [eax],al
00001F64  0000              add [eax],al
00001F66  0000              add [eax],al
00001F68  0000              add [eax],al
00001F6A  0000              add [eax],al
00001F6C  0000              add [eax],al
00001F6E  0000              add [eax],al
00001F70  0000              add [eax],al
00001F72  0000              add [eax],al
00001F74  0000              add [eax],al
00001F76  0000              add [eax],al
00001F78  0000              add [eax],al
00001F7A  0000              add [eax],al
00001F7C  0000              add [eax],al
00001F7E  0000              add [eax],al
00001F80  0000              add [eax],al
00001F82  0000              add [eax],al
00001F84  0000              add [eax],al
00001F86  0000              add [eax],al
00001F88  0000              add [eax],al
00001F8A  0000              add [eax],al
00001F8C  0000              add [eax],al
00001F8E  0000              add [eax],al
00001F90  0000              add [eax],al
00001F92  0000              add [eax],al
00001F94  0000              add [eax],al
00001F96  0000              add [eax],al
00001F98  0000              add [eax],al
00001F9A  0000              add [eax],al
00001F9C  0000              add [eax],al
00001F9E  0000              add [eax],al
00001FA0  0000              add [eax],al
00001FA2  0000              add [eax],al
00001FA4  0000              add [eax],al
00001FA6  0000              add [eax],al
00001FA8  0000              add [eax],al
00001FAA  0000              add [eax],al
00001FAC  0000              add [eax],al
00001FAE  0000              add [eax],al
00001FB0  0000              add [eax],al
00001FB2  0000              add [eax],al
00001FB4  0000              add [eax],al
00001FB6  0000              add [eax],al
00001FB8  0000              add [eax],al
00001FBA  0000              add [eax],al
00001FBC  0000              add [eax],al
00001FBE  0000              add [eax],al
00001FC0  0000              add [eax],al
00001FC2  0000              add [eax],al
00001FC4  0000              add [eax],al
00001FC6  0000              add [eax],al
00001FC8  0000              add [eax],al
00001FCA  0000              add [eax],al
00001FCC  0000              add [eax],al
00001FCE  0000              add [eax],al
00001FD0  0000              add [eax],al
00001FD2  0000              add [eax],al
00001FD4  0000              add [eax],al
00001FD6  0000              add [eax],al
00001FD8  0000              add [eax],al
00001FDA  0000              add [eax],al
00001FDC  0000              add [eax],al
00001FDE  0000              add [eax],al
00001FE0  0000              add [eax],al
00001FE2  0000              add [eax],al
00001FE4  0000              add [eax],al
00001FE6  0000              add [eax],al
00001FE8  0000              add [eax],al
00001FEA  0000              add [eax],al
00001FEC  0000              add [eax],al
00001FEE  0000              add [eax],al
00001FF0  0000              add [eax],al
00001FF2  0000              add [eax],al
00001FF4  0000              add [eax],al
00001FF6  0000              add [eax],al
00001FF8  0000              add [eax],al
00001FFA  0000              add [eax],al
00001FFC  0000              add [eax],al
00001FFE  0000              add [eax],al
