00000000  BCF0FF            mov sp,0xfff0
00000003  1000              adc [bx+si],al
00000005  E97406            jmp 0x67c
00000008  0000              add [bx+si],al
0000000A  0F0B              ud2
0000000C  6690              xchg eax,eax
0000000E  6690              xchg eax,eax
00000010  6690              xchg eax,eax
00000012  6690              xchg eax,eax
00000014  6690              xchg eax,eax
00000016  6690              xchg eax,eax
00000018  6690              xchg eax,eax
0000001A  6690              xchg eax,eax
0000001C  6690              xchg eax,eax
0000001E  6690              xchg eax,eax
00000020  6690              xchg eax,eax
00000022  6690              xchg eax,eax
00000024  6690              xchg eax,eax
00000026  6690              xchg eax,eax
00000028  6690              xchg eax,eax
0000002A  6690              xchg eax,eax
0000002C  6690              xchg eax,eax
0000002E  6690              xchg eax,eax
00000030  6690              xchg eax,eax
00000032  6690              xchg eax,eax
00000034  6690              xchg eax,eax
00000036  6690              xchg eax,eax
00000038  6690              xchg eax,eax
0000003A  6690              xchg eax,eax
0000003C  6690              xchg eax,eax
0000003E  6690              xchg eax,eax
00000040  6A00              push byte +0x0
00000042  E93901            jmp 0x17e
00000045  0000              add [bx+si],al
00000047  90                nop
00000048  90                nop
00000049  90                nop
0000004A  90                nop
0000004B  90                nop
0000004C  90                nop
0000004D  90                nop
0000004E  90                nop
0000004F  90                nop
00000050  6A01              push byte +0x1
00000052  E92901            jmp 0x17e
00000055  0000              add [bx+si],al
00000057  90                nop
00000058  90                nop
00000059  90                nop
0000005A  90                nop
0000005B  90                nop
0000005C  90                nop
0000005D  90                nop
0000005E  90                nop
0000005F  90                nop
00000060  6A02              push byte +0x2
00000062  E91901            jmp 0x17e
00000065  0000              add [bx+si],al
00000067  90                nop
00000068  90                nop
00000069  90                nop
0000006A  90                nop
0000006B  90                nop
0000006C  90                nop
0000006D  90                nop
0000006E  90                nop
0000006F  90                nop
00000070  6A03              push byte +0x3
00000072  E90901            jmp 0x17e
00000075  0000              add [bx+si],al
00000077  90                nop
00000078  90                nop
00000079  90                nop
0000007A  90                nop
0000007B  90                nop
0000007C  90                nop
0000007D  90                nop
0000007E  90                nop
0000007F  90                nop
00000080  6A04              push byte +0x4
00000082  E9F900            jmp 0x17e
00000085  0000              add [bx+si],al
00000087  90                nop
00000088  90                nop
00000089  90                nop
0000008A  90                nop
0000008B  90                nop
0000008C  90                nop
0000008D  90                nop
0000008E  90                nop
0000008F  90                nop
00000090  6A05              push byte +0x5
00000092  E9E900            jmp 0x17e
00000095  0000              add [bx+si],al
00000097  90                nop
00000098  90                nop
00000099  90                nop
0000009A  90                nop
0000009B  90                nop
0000009C  90                nop
0000009D  90                nop
0000009E  90                nop
0000009F  90                nop
000000A0  6A06              push byte +0x6
000000A2  E9D900            jmp 0x17e
000000A5  0000              add [bx+si],al
000000A7  90                nop
000000A8  90                nop
000000A9  90                nop
000000AA  90                nop
000000AB  90                nop
000000AC  90                nop
000000AD  90                nop
000000AE  90                nop
000000AF  90                nop
000000B0  6A07              push byte +0x7
000000B2  E9C900            jmp 0x17e
000000B5  0000              add [bx+si],al
000000B7  90                nop
000000B8  90                nop
000000B9  90                nop
000000BA  90                nop
000000BB  90                nop
000000BC  90                nop
000000BD  90                nop
000000BE  90                nop
000000BF  90                nop
000000C0  368F05            pop word [ss:di]
000000C3  C00100            rol byte [bx+di],byte 0x0
000000C6  C06A08E9          shr byte [bp+si+0x8],byte 0xe9
000000CA  B200              mov dl,0x0
000000CC  0000              add [bx+si],al
000000CE  90                nop
000000CF  90                nop
000000D0  6A09              push byte +0x9
000000D2  E9A900            jmp 0x17e
000000D5  0000              add [bx+si],al
000000D7  90                nop
000000D8  90                nop
000000D9  90                nop
000000DA  90                nop
000000DB  90                nop
000000DC  90                nop
000000DD  90                nop
000000DE  90                nop
000000DF  90                nop
000000E0  368F05            pop word [ss:di]
000000E3  C00100            rol byte [bx+di],byte 0x0
000000E6  C06A0AE9          shr byte [bp+si+0xa],byte 0xe9
000000EA  92                xchg ax,dx
000000EB  0000              add [bx+si],al
000000ED  00909036          add [bx+si+0x3690],dl
000000F1  8F05              pop word [di]
000000F3  C00100            rol byte [bx+di],byte 0x0
000000F6  C06A0BE9          shr byte [bp+si+0xb],byte 0xe9
000000FA  82                db 0x82
000000FB  0000              add [bx+si],al
000000FD  00909036          add [bx+si+0x3690],dl
00000101  8F05              pop word [di]
00000103  C00100            rol byte [bx+di],byte 0x0
00000106  C06A0CEB          shr byte [bp+si+0xc],byte 0xeb
0000010A  7590              jnz 0x9c
0000010C  90                nop
0000010D  90                nop
0000010E  90                nop
0000010F  90                nop
00000110  368F05            pop word [ss:di]
00000113  C00100            rol byte [bx+di],byte 0x0
00000116  C06A0DEB          shr byte [bp+si+0xd],byte 0xeb
0000011A  6590              gs nop
0000011C  90                nop
0000011D  90                nop
0000011E  90                nop
0000011F  90                nop
00000120  368F05            pop word [ss:di]
00000123  C00100            rol byte [bx+di],byte 0x0
00000126  C06A0EEB          shr byte [bp+si+0xe],byte 0xeb
0000012A  55                push bp
0000012B  90                nop
0000012C  90                nop
0000012D  90                nop
0000012E  90                nop
0000012F  90                nop
00000130  6A0F              push byte +0xf
00000132  EB4C              jmp short 0x180
00000134  90                nop
00000135  90                nop
00000136  90                nop
00000137  90                nop
00000138  90                nop
00000139  90                nop
0000013A  90                nop
0000013B  90                nop
0000013C  90                nop
0000013D  90                nop
0000013E  90                nop
0000013F  90                nop
00000140  6A10              push byte +0x10
00000142  EB3C              jmp short 0x180
00000144  90                nop
00000145  90                nop
00000146  90                nop
00000147  90                nop
00000148  90                nop
00000149  90                nop
0000014A  90                nop
0000014B  90                nop
0000014C  90                nop
0000014D  90                nop
0000014E  90                nop
0000014F  90                nop
00000150  368F05            pop word [ss:di]
00000153  C00100            rol byte [bx+di],byte 0x0
00000156  C06A11EB          shr byte [bp+si+0x11],byte 0xeb
0000015A  259090            and ax,0x9090
0000015D  90                nop
0000015E  90                nop
0000015F  90                nop
00000160  6A12              push byte +0x12
00000162  EB1C              jmp short 0x180
00000164  90                nop
00000165  90                nop
00000166  90                nop
00000167  90                nop
00000168  90                nop
00000169  90                nop
0000016A  90                nop
0000016B  90                nop
0000016C  90                nop
0000016D  90                nop
0000016E  90                nop
0000016F  90                nop
00000170  6A13              push byte +0x13
00000172  EB0C              jmp short 0x180
00000174  90                nop
00000175  90                nop
00000176  90                nop
00000177  90                nop
00000178  90                nop
00000179  90                nop
0000017A  90                nop
0000017B  90                nop
0000017C  90                nop
0000017D  90                nop
0000017E  90                nop
0000017F  90                nop
00000180  368F05            pop word [ss:di]
00000183  C401              les ax,[bx+di]
00000185  00C0              add al,al
00000187  0FA8              push gs
00000189  0FA0              push fs
0000018B  1E                push ds
0000018C  06                push es
0000018D  55                push bp
0000018E  57                push di
0000018F  56                push si
00000190  52                push dx
00000191  51                push cx
00000192  53                push bx
00000193  50                push ax
00000194  B81000            mov ax,0x10
00000197  0000              add [bx+si],al
00000199  8ED8              mov ds,ax
0000019B  8EC0              mov es,ax
0000019D  89E2              mov dx,sp
0000019F  52                push dx
000001A0  8B1D              mov bx,[di]
000001A2  C401              les ax,[bx+di]
000001A4  00C0              add al,al
000001A6  FF14              call [si]
000001A8  9D                popf
000001A9  C80100C0          enter 0x1,0xc0
000001AD  83C404            add sp,byte +0x4
000001B0  58                pop ax
000001B1  5B                pop bx
000001B2  59                pop cx
000001B3  5A                pop dx
000001B4  5E                pop si
000001B5  5F                pop di
000001B6  5D                pop bp
000001B7  07                pop es
000001B8  1F                pop ds
000001B9  0FA1              pop fs
000001BB  0FA9              pop gs
000001BD  CF                iret
000001BE  90                nop
000001BF  90                nop
000001C0  0000              add [bx+si],al
000001C2  0000              add [bx+si],al
000001C4  0000              add [bx+si],al
000001C6  0000              add [bx+si],al
000001C8  FF                db 0xff
000001C9  FF                db 0xff
000001CA  FF                db 0xff
000001CB  FF                db 0xff
000001CC  FF                db 0xff
000001CD  FF                db 0xff
000001CE  FF                db 0xff
000001CF  FF                db 0xff
000001D0  FF                db 0xff
000001D1  FF                db 0xff
000001D2  FF                db 0xff
000001D3  FF                db 0xff
000001D4  FF                db 0xff
000001D5  FF                db 0xff
000001D6  FF                db 0xff
000001D7  FF                db 0xff
000001D8  FF                db 0xff
000001D9  FF                db 0xff
000001DA  FF                db 0xff
000001DB  FF                db 0xff
000001DC  FF                db 0xff
000001DD  FF                db 0xff
000001DE  FF                db 0xff
000001DF  FF                db 0xff
000001E0  FF                db 0xff
000001E1  FF                db 0xff
000001E2  FF                db 0xff
000001E3  FF                db 0xff
000001E4  FF                db 0xff
000001E5  FF                db 0xff
000001E6  FF                db 0xff
000001E7  FF                db 0xff
000001E8  FF                db 0xff
000001E9  FF                db 0xff
000001EA  FF                db 0xff
000001EB  FF                db 0xff
000001EC  FF                db 0xff
000001ED  FF                db 0xff
000001EE  FF                db 0xff
000001EF  FF                db 0xff
000001F0  FF                db 0xff
000001F1  FF                db 0xff
000001F2  FF                db 0xff
000001F3  FF                db 0xff
000001F4  FF                db 0xff
000001F5  FF                db 0xff
000001F6  FF                db 0xff
000001F7  FF                db 0xff
000001F8  FF                db 0xff
000001F9  FF                db 0xff
000001FA  FF                db 0xff
000001FB  FF                db 0xff
000001FC  FF                db 0xff
000001FD  FF                db 0xff
000001FE  FF                db 0xff
000001FF  FF                db 0xff
00000200  FF                db 0xff
00000201  FF                db 0xff
00000202  FF                db 0xff
00000203  FF                db 0xff
00000204  FF                db 0xff
00000205  FF                db 0xff
00000206  FF                db 0xff
00000207  FF                db 0xff
00000208  FF                db 0xff
00000209  FF                db 0xff
0000020A  FF                db 0xff
0000020B  FF                db 0xff
0000020C  FF                db 0xff
0000020D  FF                db 0xff
0000020E  FF                db 0xff
0000020F  FF                db 0xff
00000210  FF                db 0xff
00000211  FF                db 0xff
00000212  FF                db 0xff
00000213  FF                db 0xff
00000214  FF                db 0xff
00000215  FF                db 0xff
00000216  FF                db 0xff
00000217  FF909090          call [bx+si-0x6f70]
0000021B  90                nop
0000021C  90                nop
0000021D  90                nop
0000021E  90                nop
0000021F  90                nop
00000220  36C6057C          mov byte [ss:di],0x7c
00000224  0300              add ax,[bx+si]
00000226  C001E9            rol byte [bx+di],byte 0xe9
00000229  E300              jcxz 0x22b
0000022B  0000              add [bx+si],al
0000022D  90                nop
0000022E  90                nop
0000022F  90                nop
00000230  36C6057C          mov byte [ss:di],0x7c
00000234  0300              add ax,[bx+si]
00000236  C002E9            rol byte [bp+si],byte 0xe9
00000239  D300              rol word [bx+si],cl
0000023B  0000              add [bx+si],al
0000023D  90                nop
0000023E  90                nop
0000023F  90                nop
00000240  36C6057C          mov byte [ss:di],0x7c
00000244  0300              add ax,[bx+si]
00000246  C003E9            rol byte [bp+di],byte 0xe9
00000249  C3                ret
0000024A  0000              add [bx+si],al
0000024C  00909090          add [bx+si-0x6f70],dl
00000250  36C6057C          mov byte [ss:di],0x7c
00000254  0300              add ax,[bx+si]
00000256  C004E9            rol byte [si],byte 0xe9
00000259  B300              mov bl,0x0
0000025B  0000              add [bx+si],al
0000025D  90                nop
0000025E  90                nop
0000025F  90                nop
00000260  36C6057C          mov byte [ss:di],0x7c
00000264  0300              add ax,[bx+si]
00000266  C005E9            rol byte [di],byte 0xe9
00000269  A30000            mov [0x0],ax
0000026C  00909090          add [bx+si-0x6f70],dl
00000270  36C6057C          mov byte [ss:di],0x7c
00000274  0300              add ax,[bx+si]
00000276  C006E99300        rol byte [0x93e9],byte 0x0
0000027B  0000              add [bx+si],al
0000027D  90                nop
0000027E  90                nop
0000027F  90                nop
00000280  36C6057C          mov byte [ss:di],0x7c
00000284  0300              add ax,[bx+si]
00000286  C007E9            rol byte [bx],byte 0xe9
00000289  830000            add word [bx+si],byte +0x0
0000028C  0036C605          add [0x5c6],dh
00000290  7C03              jl 0x295
00000292  00C0              add al,al
00000294  08EB              or bl,ch
00000296  7990              jns 0x228
00000298  90                nop
00000299  90                nop
0000029A  90                nop
0000029B  90                nop
0000029C  90                nop
0000029D  90                nop
0000029E  90                nop
0000029F  90                nop
000002A0  36C6057C          mov byte [ss:di],0x7c
000002A4  0300              add ax,[bx+si]
000002A6  C009EB            ror byte [bx+di],byte 0xeb
000002A9  6690              xchg eax,eax
000002AB  90                nop
000002AC  90                nop
000002AD  90                nop
000002AE  90                nop
000002AF  90                nop
000002B0  36C6057C          mov byte [ss:di],0x7c
000002B4  0300              add ax,[bx+si]
000002B6  C00AEB            ror byte [bp+si],byte 0xeb
000002B9  56                push si
000002BA  90                nop
000002BB  90                nop
000002BC  90                nop
000002BD  90                nop
000002BE  90                nop
000002BF  90                nop
000002C0  36C6057C          mov byte [ss:di],0x7c
000002C4  0300              add ax,[bx+si]
000002C6  C00BEB            ror byte [bp+di],byte 0xeb
000002C9  46                inc si
000002CA  90                nop
000002CB  90                nop
000002CC  90                nop
000002CD  90                nop
000002CE  90                nop
000002CF  90                nop
000002D0  36C6057C          mov byte [ss:di],0x7c
000002D4  0300              add ax,[bx+si]
000002D6  C00CEB            ror byte [si],byte 0xeb
000002D9  3690              ss nop
000002DB  90                nop
000002DC  90                nop
000002DD  90                nop
000002DE  90                nop
000002DF  90                nop
000002E0  36C6057C          mov byte [ss:di],0x7c
000002E4  0300              add ax,[bx+si]
000002E6  C00DEB            ror byte [di],byte 0xeb
000002E9  2690              es nop
000002EB  90                nop
000002EC  90                nop
000002ED  90                nop
000002EE  90                nop
000002EF  90                nop
000002F0  36C6057C          mov byte [ss:di],0x7c
000002F4  0300              add ax,[bx+si]
000002F6  C00EEB1690        ror byte [0x16eb],byte 0x90
000002FB  90                nop
000002FC  90                nop
000002FD  90                nop
000002FE  90                nop
000002FF  90                nop
00000300  36C6057C          mov byte [ss:di],0x7c
00000304  0300              add ax,[bx+si]
00000306  C00FEB            ror byte [bx],byte 0xeb
00000309  06                push es
0000030A  90                nop
0000030B  90                nop
0000030C  90                nop
0000030D  90                nop
0000030E  90                nop
0000030F  90                nop
00000310  1E                push ds
00000311  0FA8              push gs
00000313  0FA0              push fs
00000315  1E                push ds
00000316  06                push es
00000317  55                push bp
00000318  57                push di
00000319  56                push si
0000031A  52                push dx
0000031B  51                push cx
0000031C  53                push bx
0000031D  50                push ax
0000031E  B81000            mov ax,0x10
00000321  0000              add [bx+si],al
00000323  8ED8              mov ds,ax
00000325  8B1D              mov bx,[di]
00000327  7C03              jl 0x32c
00000329  00C0              add al,al
0000032B  833C9D            cmp word [si],byte -0x63
0000032E  800300            add byte [bp+di],0x0
00000331  C00074            rol byte [bx+si],byte 0x74
00000334  0E                push cs
00000335  89E0              mov ax,sp
00000337  FF14              call [si]
00000339  9D                popf
0000033A  800300            add byte [bp+di],0x0
0000033D  C0                db 0xc0
0000033E  F6C307            test bl,0x7
00000341  741D              jz 0x360
00000343  89DA              mov dx,bx
00000345  9A10300000        call 0x0:0x3010
0000034A  2800              sub [bx+si],al
0000034C  EB1E              jmp short 0x36c
0000034E  803D7C            cmp byte [di],0x7c
00000351  0300              add ax,[bx+si]
00000353  C00F75            ror byte [bx],byte 0x75
00000356  159090            adc ax,0x9090
00000359  90                nop
0000035A  90                nop
0000035B  90                nop
0000035C  90                nop
0000035D  90                nop
0000035E  90                nop
0000035F  90                nop
00000360  B020              mov al,0x20
00000362  E6A0              out 0xa0,al
00000364  EB00              jmp short 0x366
00000366  B020              mov al,0x20
00000368  E620              out 0x20,al
0000036A  EB00              jmp short 0x36c
0000036C  58                pop ax
0000036D  5B                pop bx
0000036E  59                pop cx
0000036F  5A                pop dx
00000370  5E                pop si
00000371  5F                pop di
00000372  5D                pop bp
00000373  07                pop es
00000374  1F                pop ds
00000375  0FA1              pop fs
00000377  0FA9              pop gs
00000379  1F                pop ds
0000037A  CF                iret
0000037B  90                nop
0000037C  0000              add [bx+si],al
0000037E  0000              add [bx+si],al
00000380  C00300            rol byte [bp+di],byte 0x0
00000383  C00000            rol byte [bx+si],byte 0x0
00000386  0000              add [bx+si],al
00000388  0000              add [bx+si],al
0000038A  0000              add [bx+si],al
0000038C  0000              add [bx+si],al
0000038E  0000              add [bx+si],al
00000390  0000              add [bx+si],al
00000392  0000              add [bx+si],al
00000394  0000              add [bx+si],al
00000396  0000              add [bx+si],al
00000398  0000              add [bx+si],al
0000039A  0000              add [bx+si],al
0000039C  0000              add [bx+si],al
0000039E  0000              add [bx+si],al
000003A0  0000              add [bx+si],al
000003A2  0000              add [bx+si],al
000003A4  0000              add [bx+si],al
000003A6  0000              add [bx+si],al
000003A8  0000              add [bx+si],al
000003AA  0000              add [bx+si],al
000003AC  0000              add [bx+si],al
000003AE  0000              add [bx+si],al
000003B0  0000              add [bx+si],al
000003B2  0000              add [bx+si],al
000003B4  0000              add [bx+si],al
000003B6  0000              add [bx+si],al
000003B8  0000              add [bx+si],al
000003BA  0000              add [bx+si],al
000003BC  0000              add [bx+si],al
000003BE  0000              add [bx+si],al
000003C0  90                nop
000003C1  50                push ax
000003C2  B020              mov al,0x20
000003C4  E620              out 0x20,al
000003C6  58                pop ax
000003C7  CF                iret
000003C8  36F744240403      test word [ss:si+0x24],0x304
000003CE  0000              add [bx+si],al
000003D0  00740C            add [si+0xc],dh
000003D3  368B5C24          mov bx,[ss:si+0x24]
000003D7  04B8              add al,0xb8
000003D9  BEBAFE            mov si,0xfeba
000003DC  CAEBFE            retf 0xfeeb
000003DF  53                push bx
000003E0  BB1000            mov bx,0x10
000003E3  0000              add [bx+si],al
000003E5  8EDB              mov ds,bx
000003E7  8EC3              mov es,bx
000003E9  89E3              mov bx,sp
000003EB  81E300F0          and bx,0xf000
000003EF  FF                db 0xff
000003F0  FF890389          dec word [bx+di-0x76fd]
000003F4  4B                dec bx
000003F5  0889530C          or [bx+di+0xc53],cl
000003F9  897310            mov [bp+di+0x10],si
000003FC  897B14            mov [bp+di+0x14],di
000003FF  896B18            mov [bp+di+0x18],bp
00000402  896338            mov [bp+di+0x38],sp
00000405  8343380C          add word [bp+di+0x38],byte +0xc
00000409  8F4304            pop word [bp+di+0x4]
0000040C  F743300300        test word [bp+di+0x30],0x3
00000411  0000              add [bx+si],al
00000413  753B              jnz 0x450
00000415  FC                cld
00000416  89E6              mov si,sp
00000418  8D7B38            lea di,[bp+di+0x38]
0000041B  B90400            mov cx,0x4
0000041E  0000              add [bx+si],al
00000420  F3A5              rep movsw
00000422  8B5B50            mov bx,[bp+di+0x50]
00000425  8B6338            mov sp,[bp+di+0x38]
00000428  83EC0C            sub sp,byte +0xc
0000042B  FF7334            push word [bp+di+0x34]
0000042E  FF7330            push word [bp+di+0x30]
00000431  FF732C            push word [bp+di+0x2c]
00000434  B82000            mov ax,0x20
00000437  0000              add [bx+si],al
00000439  E620              out 0x20,al
0000043B  8B03              mov ax,[bp+di]
0000043D  8B4B08            mov cx,[bp+di+0x8]
00000440  8B530C            mov dx,[bp+di+0xc]
00000443  8B7310            mov si,[bp+di+0x10]
00000446  8B7B14            mov di,[bp+di+0x14]
00000449  8B6B18            mov bp,[bp+di+0x18]
0000044C  8B5B04            mov bx,[bp+di+0x4]
0000044F  CF                iret
00000450  B8EFBE            mov ax,0xbeef
00000453  AD                lodsw
00000454  DEEB              fsubp st3
00000456  FE0F              dec byte [bx]
00000458  A80F              test al,0xf
0000045A  A01E06            mov al,[0x61e]
0000045D  55                push bp
0000045E  57                push di
0000045F  56                push si
00000460  52                push dx
00000461  51                push cx
00000462  53                push bx
00000463  50                push ax
00000464  58                pop ax
00000465  5B                pop bx
00000466  59                pop cx
00000467  5A                pop dx
00000468  5E                pop si
00000469  5F                pop di
0000046A  5D                pop bp
0000046B  07                pop es
0000046C  1F                pop ds
0000046D  0FA1              pop fs
0000046F  0FA9              pop gs
00000471  CF                iret
00000472  0000              add [bx+si],al
00000474  0000              add [bx+si],al
00000476  0000              add [bx+si],al
00000478  0000              add [bx+si],al
0000047A  0000              add [bx+si],al
0000047C  0000              add [bx+si],al
0000047E  0000              add [bx+si],al
00000480  0000              add [bx+si],al
00000482  FF05              inc word [di]
00000484  7E04              jng 0x48a
00000486  00C0              add al,al
00000488  891D              mov [di],bx
0000048A  0C20              or al,0x20
0000048C  00C0              add al,al
0000048E  8935              mov [di],si
00000490  0420              add al,0x20
00000492  00C0              add al,al
00000494  893D              mov [di],di
00000496  0820              or [bx+si],ah
00000498  00C0              add al,al
0000049A  892D              mov [di],bp
0000049C  0020              add [bx+si],ah
0000049E  00C0              add al,al
000004A0  8B5C24            mov bx,[si+0x24]
000004A3  0489              add al,0x89
000004A5  1D1420            sbb ax,0x2014
000004A8  00C0              add al,al
000004AA  FF35              push word [di]
000004AC  FC                cld
000004AD  0100              add [bx+si],ax
000004AF  C0C705            rol bh,byte 0x5
000004B2  FC                cld
000004B3  0100              add [bx+si],ax
000004B5  C02105            shl byte [bx+di],byte 0x5
000004B8  00C0              add al,al
000004BA  9C                pushf
000004BB  66C705482800C0    mov dword [di],0xc0002848
000004C2  1000              adc [bx+si],al
000004C4  8925              mov [di],sp
000004C6  44                inc sp
000004C7  2800              sub [bx+si],al
000004C9  C0FF73            sar bh,byte 0x73
000004CC  4C                dec sp
000004CD  FF7348            push word [bp+di+0x48]
000004D0  FF7344            push word [bp+di+0x44]
000004D3  FF7340            push word [bp+di+0x40]
000004D6  FF733C            push word [bp+di+0x3c]
000004D9  FF7338            push word [bp+di+0x38]
000004DC  FF7334            push word [bp+di+0x34]
000004DF  810C2400          or word [si],0x24
000004E3  0002              add [bp+si],al
000004E5  00FF              add bh,bh
000004E7  7330              jnc 0x519
000004E9  FF732C            push word [bp+di+0x2c]
000004EC  8B03              mov ax,[bp+di]
000004EE  8B4B08            mov cx,[bp+di+0x8]
000004F1  8B530C            mov dx,[bp+di+0xc]
000004F4  8B7310            mov si,[bp+di+0x10]
000004F7  8B7B14            mov di,[bp+di+0x14]
000004FA  8B6B18            mov bp,[bp+di+0x18]
000004FD  8B5B04            mov bx,[bp+di+0x4]
00000500  CF                iret
00000501  9D                popf
00000502  8F05              pop word [di]
00000504  FC                cld
00000505  0100              add [bx+si],ax
00000507  C08B1D0C20        ror byte [bp+di+0xc1d],byte 0x20
0000050C  00C0              add al,al
0000050E  8B35              mov si,[di]
00000510  0420              add al,0x20
00000512  00C0              add al,al
00000514  8B3D              mov di,[di]
00000516  0820              or [bx+si],ah
00000518  00C0              add al,al
0000051A  8B2D              mov bp,[di]
0000051C  0020              add [bx+si],ah
0000051E  00C0              add al,al
00000520  C3                ret
00000521  0F                db 0x0f
00000522  B75A              mov bh,0x5a
00000524  300F              xor [bx],cl
00000526  B74A              mov bh,0x4a
00000528  2CC1              sub al,0xc1
0000052A  E304              jcxz 0x530
0000052C  035A2C            add bx,[bp+si+0x2c]
0000052F  0FB603            movzx ax,[bp+di]
00000532  3CCD              cmp al,0xcd
00000534  7506              jnz 0x53c
00000536  0FB64301          movzx ax,[bp+di+0x1]
0000053A  EB75              jmp short 0x5b1
0000053C  3CCF              cmp al,0xcf
0000053E  7507              jnz 0x547
00000540  B8FFFF            mov ax,0xffff
00000543  FF                db 0xff
00000544  FF                db 0xff
00000545  EB6A              jmp short 0x5b1
00000547  3C9C              cmp al,0x9c
00000549  751F              jnz 0x56a
0000054B  66FF422C          inc dword [bp+si+0x2c]
0000054F  66836A3802        sub dword [bp+si+0x38],byte +0x2
00000554  0F                db 0x0f
00000555  B742              mov bh,0x42
00000557  340F              xor al,0xf
00000559  B77A              mov bh,0x7a
0000055B  380F              cmp [bx],cl
0000055D  B74A              mov bh,0x4a
0000055F  3CC1              cmp al,0xc1
00000561  E104              loope 0x567
00000563  01F9              add cx,di
00000565  668901            mov [bx+di],eax
00000568  EB5F              jmp short 0x5c9
0000056A  3C9D              cmp al,0x9d
0000056C  751C              jnz 0x58a
0000056E  66FF422C          inc dword [bp+si+0x2c]
00000572  8B5A3C            mov bx,[bp+si+0x3c]
00000575  C1E304            shl bx,byte 0x4
00000578  6683423802        add dword [bp+si+0x38],byte +0x2
0000057D  035A38            add bx,[bp+si+0x38]
00000580  0FB643FE          movzx ax,[bp+di-0x2]
00000584  66894234          mov [bp+si+0x34],eax
00000588  EB3F              jmp short 0x5c9
0000058A  3CFB              cmp al,0xfb
0000058C  750C              jnz 0x59a
0000058E  814A340002        or word [bp+si+0x34],0x200
00000593  0000              add [bx+si],al
00000595  FF422C            inc word [bp+si+0x2c]
00000598  EB2F              jmp short 0x5c9
0000059A  3CFA              cmp al,0xfa
0000059C  750C              jnz 0x5aa
0000059E  816234FFFD        and word [bp+si+0x34],0xfdff
000005A3  FF                db 0xff
000005A4  FF                db 0xff
000005A5  FF422C            inc word [bp+si+0x2c]
000005A8  EB1F              jmp short 0x5c9
000005AA  BAADDE            mov dx,0xdead
000005AD  8680EBFE          xchg [bx+si-0x115],al
000005B1  FC                cld
000005B2  89D6              mov si,dx
000005B4  8B3D              mov di,[di]
000005B6  1420              adc al,0x20
000005B8  00C0              add al,al
000005BA  B91400            mov cx,0x14
000005BD  0000              add [bx+si],al
000005BF  F3A5              rep movsw
000005C1  83C458            add sp,byte +0x58
000005C4  E938FF            jmp 0x4ff
000005C7  FF                db 0xff
000005C8  FFC3              inc bx
000005CA  55                push bp
000005CB  89E5              mov bp,sp
000005CD  8B5508            mov dx,[di+0x8]
000005D0  89D0              mov ax,dx
000005D2  E621              out 0x21,al
000005D4  31C9              xor cx,cx
000005D6  89C8              mov ax,cx
000005D8  E680              out 0x80,al
000005DA  89D0              mov ax,dx
000005DC  66C1E808          shr eax,byte 0x8
000005E0  E6A1              out 0xa1,al
000005E2  89C8              mov ax,cx
000005E4  E680              out 0x80,al
000005E6  5D                pop bp
000005E7  C20400            ret 0x4
000005EA  31C9              xor cx,cx
000005EC  89C8              mov ax,cx
000005EE  E680              out 0x80,al
000005F0  E421              in al,0x21
000005F2  0FB6D0            movzx dx,al
000005F5  89C8              mov ax,cx
000005F7  E680              out 0x80,al
000005F9  E4A1              in al,0xa1
000005FB  C1E008            shl ax,byte 0x8
000005FE  09D0              or ax,dx
00000600  C3                ret
00000601  55                push bp
00000602  89E5              mov bp,sp
00000604  53                push bx
00000605  B311              mov bl,0x11
00000607  E8DEFF            call 0x5e8
0000060A  FF                db 0xff
0000060B  FF0F              dec word [bx]
0000060D  B7C8              mov bh,0xc8
0000060F  89D8              mov ax,bx
00000611  E620              out 0x20,al
00000613  31D2              xor dx,dx
00000615  89D0              mov ax,dx
00000617  E680              out 0x80,al
00000619  89D8              mov ax,bx
0000061B  E6A0              out 0xa0,al
0000061D  89D0              mov ax,dx
0000061F  E680              out 0x80,al
00000621  B0A0              mov al,0xa0
00000623  E621              out 0x21,al
00000625  89D0              mov ax,dx
00000627  E680              out 0x80,al
00000629  B0A8              mov al,0xa8
0000062B  E6A1              out 0xa1,al
0000062D  89D0              mov ax,dx
0000062F  E680              out 0x80,al
00000631  B004              mov al,0x4
00000633  E621              out 0x21,al
00000635  89D0              mov ax,dx
00000637  E680              out 0x80,al
00000639  B002              mov al,0x2
0000063B  E6A1              out 0xa1,al
0000063D  89D0              mov ax,dx
0000063F  E680              out 0x80,al
00000641  B001              mov al,0x1
00000643  E621              out 0x21,al
00000645  89D0              mov ax,dx
00000647  E680              out 0x80,al
00000649  B009              mov al,0x9
0000064B  E6A1              out 0xa1,al
0000064D  89D0              mov ax,dx
0000064F  E680              out 0x80,al
00000651  51                push cx
00000652  E873FF            call 0x5c8
00000655  FF                db 0xff
00000656  FF8B5DFC          dec word [bp+di-0x3a3]
0000065A  C9                leave
0000065B  C3                ret
0000065C  0FB6D2            movzx dx,dl
0000065F  668904            mov [si],eax
00000662  D540              aad 0x40
00000664  2000              and [bx+si],al
00000666  C0C1E8            rol cl,byte 0xe8
00000669  106689            adc [bp-0x77],ah
0000066C  04D5              add al,0xd5
0000066E  46                inc si
0000066F  2000              and [bx+si],al
00000671  C0C704            rol bh,byte 0x4
00000674  D542              aad 0x42
00000676  2000              and [bx+si],al
00000678  C00800            ror byte [bx+si],byte 0x0
0000067B  008EC355          add [bp+0x55c3],cl
0000067F  BA0020            mov dx,0x2000
00000682  00C0              add al,al
00000684  31C0              xor ax,ax
00000686  B90030            mov cx,0x3000
00000689  0000              add [bx+si],al
0000068B  89E5              mov bp,sp
0000068D  57                push di
0000068E  89D7              mov di,dx
00000690  56                push si
00000691  83EC50            sub sp,byte +0x50
00000694  F3AA              rep stosb
00000696  68C000            push word 0xc0
00000699  0000              add [bx+si],al
0000069B  689A00            push word 0x9a
0000069E  0000              add [bx+si],al
000006A0  68FFFF            push word 0xffff
000006A3  FF00              inc word [bx+si]
000006A5  6A00              push byte +0x0
000006A7  6A08              push byte +0x8
000006A9  E85A02            call 0x906
000006AC  0000              add [bx+si],al
000006AE  68C000            push word 0xc0
000006B1  0000              add [bx+si],al
000006B3  689200            push word 0x92
000006B6  0000              add [bx+si],al
000006B8  68FFFF            push word 0xffff
000006BB  FF00              inc word [bx+si]
000006BD  6A00              push byte +0x0
000006BF  6A10              push byte +0x10
000006C1  E84202            call 0x906
000006C4  0000              add [bx+si],al
000006C6  6A00              push byte +0x0
000006C8  688900            push word 0x89
000006CB  0000              add [bx+si],al
000006CD  686820            push word 0x2068
000006D0  0000              add [bx+si],al
000006D2  684028            push word 0x2840
000006D5  00C0              add al,al
000006D7  6A18              push byte +0x18
000006D9  E82A02            call 0x906
000006DC  0000              add [bx+si],al
000006DE  6A00              push byte +0x0
000006E0  688200            push word 0x82
000006E3  0000              add [bx+si],al
000006E5  68FF03            push word 0x3ff
000006E8  0000              add [bx+si],al
000006EA  68C048            push word 0x48c0
000006ED  00C0              add al,al
000006EF  6A20              push byte +0x20
000006F1  E81202            call 0x906
000006F4  0000              add [bx+si],al
000006F6  6A00              push byte +0x0
000006F8  688200            push word 0x82
000006FB  0000              add [bx+si],al
000006FD  68FF00            push word 0xff
00000700  0000              add [bx+si],al
00000702  680004            push word 0x400
00000705  0000              add [bx+si],al
00000707  6A38              push byte +0x38
00000709  E8FA01            call 0x906
0000070C  0000              add [bx+si],al
0000070E  6A00              push byte +0x0
00000710  689A00            push word 0x9a
00000713  0000              add [bx+si],al
00000715  68FFFF            push word 0xffff
00000718  0000              add [bx+si],al
0000071A  68F0FF            push word 0xfff0
0000071D  0F006A28          verw [bp+si+0x28]
00000721  E8E201            call 0x906
00000724  0000              add [bx+si],al
00000726  6A00              push byte +0x0
00000728  689200            push word 0x92
0000072B  0000              add [bx+si],al
0000072D  68FFFF            push word 0xffff
00000730  0000              add [bx+si],al
00000732  68F0FF            push word 0xfff0
00000735  0F006A30          verw [bp+si+0x30]
00000739  E8CA01            call 0x906
0000073C  0000              add [bx+si],al
0000073E  31C9              xor cx,cx
00000740  89C8              mov ax,cx
00000742  89CA              mov dx,cx
00000744  41                inc cx
00000745  C1E004            shl ax,byte 0x4
00000748  054000            add ax,0x40
0000074B  00C0              add al,al
0000074D  E80AFF            call 0x65a
00000750  FF                db 0xff
00000751  FF83F920          inc word [bp+di+0x20f9]
00000755  75E9              jnz 0x740
00000757  BE2002            mov si,0x220
0000075A  00C0              add al,al
0000075C  B9A100            mov cx,0xa1
0000075F  0000              add [bx+si],al
00000761  89CA              mov dx,cx
00000763  89F0              mov ax,si
00000765  41                inc cx
00000766  83C610            add si,byte +0x10
00000769  E8EEFE            call 0x65a
0000076C  FF                db 0xff
0000076D  FF81F9B0          inc word [bx+di-0x4f07]
00000771  0000              add [bx+si],al
00000773  0075EB            add [di-0x15],dh
00000776  BAA000            mov dx,0xa0
00000779  0000              add [bx+si],al
0000077B  B8C003            mov ax,0x3c0
0000077E  00C0              add al,al
00000780  E8D7FE            call 0x65a
00000783  FF                db 0xff
00000784  FF66C7            jmp [bp-0x39]
00000787  05A628            add ax,0x28a6
0000078A  00C0              add al,al
0000078C  68000F            push word 0xf00
0000078F  011D              add [di],bx
00000791  0010              add [bx+si],dl
00000793  00C0              add al,al
00000795  0F0115            lgdt [di]
00000798  0810              or [bx+si],dl
0000079A  00C0              add al,al
0000079C  66B820000F00      mov eax,0xf0020
000007A2  D066B8            shl byte [bp-0x48],1
000007A5  1800              sbb [bx+si],al
000007A7  0F00D8            ltr ax
000007AA  66B810008ED8      mov eax,0xd88e0010
000007B0  8EC0              mov es,ax
000007B2  8ED0              mov ss,ax
000007B4  6631C0            xor eax,eax
000007B7  8EE0              mov fs,ax
000007B9  8EE8              mov gs,ax
000007BB  EAC20700C0        jmp 0xc000:0x7c2
000007C0  0800              or [bx+si],al
000007C2  8B0D              mov cx,[di]
000007C4  1010              adc [bx+si],dl
000007C6  00C0              add al,al
000007C8  BE2010            mov si,0x1020
000007CB  00C0              add al,al
000007CD  BF0030            mov di,0x3000
000007D0  1000              adc [bx+si],al
000007D2  B036              mov al,0x36
000007D4  F3A4              rep movsb
000007D6  E643              out 0x43,al
000007D8  B0B0              mov al,0xb0
000007DA  E640              out 0x40,al
000007DC  B004              mov al,0x4
000007DE  E640              out 0x40,al
000007E0  E81CFE            call 0x5ff
000007E3  FF                db 0xff
000007E4  FF                db 0xff
000007E5  E8DF04            call 0xcc7
000007E8  0000              add [bx+si],al
000007EA  0F20C0            mov eax,cr0
000007ED  0D0000            or ax,0x0
000007F0  0100              add [bx+si],ax
000007F2  0F22C0            mov cr0,eax
000007F5  832500            and word [di],byte +0x0
000007F8  44                inc sp
000007F9  1000              adc [bx+si],al
000007FB  FD                std
000007FC  832504            and word [di],byte +0x4
000007FF  44                inc sp
00000800  1000              adc [bx+si],al
00000802  FD                std
00000803  832508            and word [di],byte +0x8
00000806  44                inc sp
00000807  1000              adc [bx+si],al
00000809  FD                std
0000080A  0F20D8            mov eax,cr3
0000080D  0F22D8            mov cr3,eax
00000810  FB                sti
00000811  68EFBE            push word 0xbeef
00000814  AD                lodsw
00000815  DE6848            fisubr word [bx+si+0x48]
00000818  0D00C0            or ax,0xc000
0000081B  68730B            push word 0xb73
0000081E  00C0              add al,al
00000820  E86702            call 0xa8a
00000823  0000              add [bx+si],al
00000825  8D45A8            lea ax,[di-0x58]
00000828  C745E40080        mov word [di-0x1c],0x8000
0000082D  0000              add [bx+si],al
0000082F  C745E00010        mov word [di-0x20],0x1000
00000834  0000              add [bx+si],al
00000836  C745A80200        mov word [di-0x58],0x2
0000083B  0000              add [bx+si],al
0000083D  C745B44100        mov word [di-0x4c],0x41
00000842  0000              add [bx+si],al
00000844  50                push ax
00000845  6A21              push byte +0x21
00000847  E89C03            call 0xbe6
0000084A  0000              add [bx+si],al
0000084C  685B0D            push word 0xd5b
0000084F  00C0              add al,al
00000851  68730B            push word 0xb73
00000854  00C0              add al,al
00000856  E83102            call 0xa8a
00000859  0000              add [bx+si],al
0000085B  B8ADDE            mov ax,0xdead
0000085E  0000              add [bx+si],al
00000860  EBFE              jmp short 0x860
00000862  83C41C            add sp,byte +0x1c
00000865  8D65F8            lea sp,[di-0x8]
00000868  5E                pop si
00000869  5F                pop di
0000086A  5D                pop bp
0000086B  C3                ret
0000086C  55                push bp
0000086D  B9C048            mov cx,0x48c0
00000870  00C0              add al,al
00000872  89E5              mov bp,sp
00000874  8B4508            mov ax,[di+0x8]
00000877  8B550C            mov dx,[di+0xc]
0000087A  A804              test al,0x4
0000087C  7505              jnz 0x883
0000087E  B9C04C            mov cx,0x4cc0
00000881  00C0              add al,al
00000883  66C1E803          shr eax,byte 0x3
00000887  0F                db 0x0f
00000888  B7C0              mov bh,0xc0
0000088A  8D04              lea ax,[si]
0000088C  C189D16689        ror word [bx+di+0x66d1],byte 0x89
00000891  50                push ax
00000892  02C1              add al,cl
00000894  E910C1            jmp 0xc9a7
00000897  EA18884804        jmp 0x448:0x8818
0000089C  885007            mov [bx+si+0x7],dl
0000089F  5D                pop bp
000008A0  C20800            ret 0x8
000008A3  55                push bp
000008A4  B9C048            mov cx,0x48c0
000008A7  00C0              add al,al
000008A9  89E5              mov bp,sp
000008AB  8B5508            mov dx,[di+0x8]
000008AE  8B450C            mov ax,[di+0xc]
000008B1  F6C204            test dl,0x4
000008B4  7505              jnz 0x8bb
000008B6  B9C04C            mov cx,0x4cc0
000008B9  00C0              add al,al
000008BB  66C1EA03          shr edx,byte 0x3
000008BF  0F                db 0x0f
000008C0  B7D2              mov bh,0xd2
000008C2  8D14              lea dx,[si]
000008C4  D16689            shl word [bp-0x77],1
000008C7  02C1              add al,cl
000008C9  E81083            call 0x8bdc
000008CC  E00F              loopne 0x8dd
000008CE  084206            or [bp+si+0x6],al
000008D1  5D                pop bp
000008D2  C20800            ret 0x8
000008D5  55                push bp
000008D6  BAC048            mov dx,0x48c0
000008D9  00C0              add al,al
000008DB  89E5              mov bp,sp
000008DD  8B4508            mov ax,[di+0x8]
000008E0  A804              test al,0x4
000008E2  7505              jnz 0x8e9
000008E4  BAC04C            mov dx,0x4cc0
000008E7  00C0              add al,al
000008E9  66C1E803          shr eax,byte 0x3
000008ED  5D                pop bp
000008EE  0F                db 0x0f
000008EF  B7C0              mov bh,0xc0
000008F1  8D14              lea dx,[si]
000008F3  C20FB6            ret 0xb60f
000008F6  42                inc dx
000008F7  06                push es
000008F8  0F                db 0x0f
000008F9  B712              mov bh,0x12
000008FB  C1E010            shl ax,byte 0x10
000008FE  250000            and ax,0x0
00000901  0F0009            str [bx+di]
00000904  D0C2              rol dl,1
00000906  0400              add al,0x0
00000908  55                push bp
00000909  B9C048            mov cx,0x48c0
0000090C  00C0              add al,al
0000090E  89E5              mov bp,sp
00000910  53                push bx
00000911  8B4508            mov ax,[di+0x8]
00000914  A804              test al,0x4
00000916  7505              jnz 0x91d
00000918  B9C04C            mov cx,0x4cc0
0000091B  00C0              add al,al
0000091D  89C2              mov dx,ax
0000091F  0F                db 0x0f
00000920  B7D8              mov bh,0xd8
00000922  66C1EA03          shr edx,byte 0x3
00000926  0F                db 0x0f
00000927  B7D2              mov bh,0xd2
00000929  8D14              lea dx,[si]
0000092B  D18B4D18          ror word [bp+di+0x184d],1
0000092F  884A06            mov [bp+si+0x6],cl
00000932  8B4D14            mov cx,[di+0x14]
00000935  884A05            mov [bp+si+0x5],cl
00000938  FF7510            push word [di+0x10]
0000093B  53                push bx
0000093C  E862FF            call 0x8a1
0000093F  FF                db 0xff
00000940  FF                db 0xff
00000941  FF750C            push word [di+0xc]
00000944  53                push bx
00000945  E822FF            call 0x86a
00000948  FF                db 0xff
00000949  FF8B5DFC          dec word [bp+di-0x3a3]
0000094D  C9                leave
0000094E  C21400            ret 0x14
00000951  C3                ret
00000952  C3                ret
00000953  C3                ret
00000954  C3                ret
00000955  6690              xchg eax,eax
00000957  6690              xchg eax,eax
00000959  6690              xchg eax,eax
0000095B  6690              xchg eax,eax
0000095D  6690              xchg eax,eax
0000095F  90                nop
00000960  50                push ax
00000961  53                push bx
00000962  51                push cx
00000963  56                push si
00000964  57                push di
00000965  FC                cld
00000966  89C8              mov ax,cx
00000968  C1E902            shr cx,byte 0x2
0000096B  F3A5              rep movsw
0000096D  89C1              mov cx,ax
0000096F  83E103            and cx,byte +0x3
00000972  F3A4              rep movsb
00000974  5F                pop di
00000975  5E                pop si
00000976  59                pop cx
00000977  5B                pop bx
00000978  58                pop ax
00000979  C3                ret
0000097A  C3                ret
0000097B  2E8D7426          lea si,[cs:si+0x26]
0000097F  005053            add [bx+si+0x53],dl
00000982  51                push cx
00000983  57                push di
00000984  FC                cld
00000985  69C00101          imul ax,ax,word 0x101
00000989  0101              add [bx+di],ax
0000098B  89CB              mov bx,cx
0000098D  C1E902            shr cx,byte 0x2
00000990  F3AB              rep stosw
00000992  89D9              mov cx,bx
00000994  83E103            and cx,byte +0x3
00000997  F3AA              rep stosb
00000999  5F                pop di
0000099A  59                pop cx
0000099B  5B                pop bx
0000099C  58                pop ax
0000099D  C3                ret
0000099E  C3                ret
0000099F  90                nop
000009A0  50                push ax
000009A1  53                push bx
000009A2  51                push cx
000009A3  FC                cld
000009A4  31C0              xor ax,ax
000009A6  89CB              mov bx,cx
000009A8  C1E902            shr cx,byte 0x2
000009AB  F3AB              rep stosw
000009AD  89D9              mov cx,bx
000009AF  83E103            and cx,byte +0x3
000009B2  F3AA              rep stosb
000009B4  51                push cx
000009B5  53                push bx
000009B6  50                push ax
000009B7  C3                ret
000009B8  C3                ret
000009B9  8DB42600          lea si,[si+0x26]
000009BD  0000              add [bx+si],al
000009BF  005053            add [bx+si+0x53],dl
000009C2  51                push cx
000009C3  57                push di
000009C4  FC                cld
000009C5  69C00100          imul ax,ax,word 0x1
000009C9  0100              add [bx+si],ax
000009CB  89CB              mov bx,cx
000009CD  D1E9              shr cx,1
000009CF  F3AB              rep stosw
000009D1  83E301            and bx,byte +0x1
000009D4  7406              jz 0x9dc
000009D6  C7070000          mov word [bx],0x0
000009DA  0000              add [bx+si],al
000009DC  5F                pop di
000009DD  59                pop cx
000009DE  5B                pop bx
000009DF  58                pop ax
000009E0  C3                ret
000009E1  C3                ret
000009E2  55                push bp
000009E3  89E5              mov bp,sp
000009E5  57                push di
000009E6  56                push si
000009E7  53                push bx
000009E8  83EC08            sub sp,byte +0x8
000009EB  8B4508            mov ax,[di+0x8]
000009EE  8B7D0C            mov di,[di+0xc]
000009F1  8945EC            mov [di-0x14],ax
000009F4  85C0              test ax,ax
000009F6  7512              jnz 0xa0a
000009F8  C745083000        mov word [di+0x8],0x30
000009FD  0000              add [bx+si],al
000009FF  8D65F4            lea sp,[di-0xc]
00000A02  89F8              mov ax,di
00000A04  5B                pop bx
00000A05  5E                pop si
00000A06  5F                pop di
00000A07  5D                pop bp
00000A08  FFE0              jmp ax
00000A0A  31F6              xor si,si
00000A0C  31DB              xor bx,bx
00000A0E  8B45EC            mov ax,[di-0x14]
00000A11  31D2              xor dx,dx
00000A13  B90A00            mov cx,0xa
00000A16  0000              add [bx+si],al
00000A18  F734              div word [si]
00000A1A  9D                popf
00000A1B  200D              and [di],cl
00000A1D  00C0              add al,al
00000A1F  31D2              xor dx,dx
00000A21  F7F1              div cx
00000A23  89D0              mov ax,dx
00000A25  8955F0            mov [di-0x10],dx
00000A28  09F0              or ax,si
00000A2A  7424              jz 0xa50
00000A2C  89D0              mov ax,dx
00000A2E  83C030            add ax,byte +0x30
00000A31  50                push ax
00000A32  FFD7              call di
00000A34  80BB100D00        cmp byte [bp+di+0xd10],0x0
00000A39  C0005A            rol byte [bx+si],byte 0x5a
00000A3C  7405              jz 0xa43
00000A3E  6A2C              push byte +0x2c
00000A40  FFD7              call di
00000A42  58                pop ax
00000A43  31C0              xor ax,ax
00000A45  837DF000          cmp word [di-0x10],byte +0x0
00000A49  0F95C0            setnz al
00000A4C  09C6              or si,ax
00000A4E  EB02              jmp short 0xa52
00000A50  31F6              xor si,si
00000A52  43                inc bx
00000A53  83FB0A            cmp bx,byte +0xa
00000A56  75B6              jnz 0xa0e
00000A58  8D65F4            lea sp,[di-0xc]
00000A5B  5B                pop bx
00000A5C  5E                pop si
00000A5D  5F                pop di
00000A5E  5D                pop bp
00000A5F  C3                ret
00000A60  55                push bp
00000A61  89E5              mov bp,sp
00000A63  53                push bx
00000A64  BB1C00            mov bx,0x1c
00000A67  0000              add [bx+si],al
00000A69  8B4508            mov ax,[di+0x8]
00000A6C  89D9              mov cx,bx
00000A6E  83EB04            sub bx,byte +0x4
00000A71  D3E8              shr ax,cl
00000A73  83E00F            and ax,byte +0xf
00000A76  0FBE80000D        movsx ax,[bx+si+0xd00]
00000A7B  00C0              add al,al
00000A7D  50                push ax
00000A7E  FF550C            call [di+0xc]
00000A81  58                pop ax
00000A82  83FBFC            cmp bx,byte -0x4
00000A85  75E2              jnz 0xa69
00000A87  8B5DFC            mov bx,[di-0x4]
00000A8A  C9                leave
00000A8B  C3                ret
00000A8C  55                push bp
00000A8D  89E5              mov bp,sp
00000A8F  57                push di
00000A90  56                push si
00000A91  8D4510            lea ax,[di+0x10]
00000A94  31F6              xor si,si
00000A96  53                push bx
00000A97  53                push bx
00000A98  8B5D08            mov bx,[di+0x8]
00000A9B  8B4D0C            mov cx,[di+0xc]
00000A9E  0FBE14            movsx dx,[si]
00000AA1  3184D20F          xor [si+0xfd2],ax
00000AA5  84C1              test cl,al
00000AA7  0000              add [bx+si],al
00000AA9  0080FA25          add [bx+si+0x25fa],al
00000AAD  0F85A400          jnz near 0xb55
00000AB1  0000              add [bx+si],al
00000AB3  8B4D0C            mov cx,[di+0xc]
00000AB6  8D7E01            lea di,[bp+0x1]
00000AB9  8A5431            mov dl,[si+0x31]
00000ABC  0180FA73          add [bx+si+0x73fa],ax
00000AC0  747A              jz 0xb3c
00000AC2  7F1F              jg 0xae3
00000AC4  80FA4B            cmp dl,0x4b
00000AC7  7460              jz 0xb29
00000AC9  80FA4D            cmp dl,0x4d
00000ACC  743F              jz 0xb0d
00000ACE  80FA25            cmp dl,0x25
00000AD1  7552              jnz 0xb25
00000AD3  8945F0            mov [di-0x10],ax
00000AD6  6A25              push byte +0x25
00000AD8  FFD3              call bx
00000ADA  8B45F0            mov ax,[di-0x10]
00000ADD  59                pop cx
00000ADE  E98000            jmp 0xb61
00000AE1  0000              add [bx+si],al
00000AE3  80FA75            cmp dl,0x75
00000AE6  7416              jz 0xafe
00000AE8  80FA78            cmp dl,0x78
00000AEB  7538              jnz 0xb25
00000AED  53                push bx
00000AEE  8D7004            lea si,[bx+si+0x4]
00000AF1  FF30              push word [bx+si]
00000AF3  E868FF            call 0xa5e
00000AF6  FF                db 0xff
00000AF7  FF5958            call far [bx+di+0x58]
00000AFA  89F0              mov ax,si
00000AFC  EB65              jmp short 0xb63
00000AFE  53                push bx
00000AFF  8D7804            lea di,[bx+si+0x4]
00000B02  FF30              push word [bx+si]
00000B04  E8D9FE            call 0x9e0
00000B07  FF                db 0xff
00000B08  FF585A            call far [bx+si+0x5a]
00000B0B  EB16              jmp short 0xb23
00000B0D  8D7804            lea di,[bx+si+0x4]
00000B10  8B00              mov ax,[bx+si]
00000B12  53                push bx
00000B13  C1E814            shr ax,byte 0x14
00000B16  50                push ax
00000B17  E8C6FE            call 0x9e0
00000B1A  FF                db 0xff
00000B1B  FF6A4D            jmp far [bp+si+0x4d]
00000B1E  FFD3              call bx
00000B20  83C40C            add sp,byte +0xc
00000B23  89F8              mov ax,di
00000B25  89F7              mov di,si
00000B27  EB3A              jmp short 0xb63
00000B29  8D7804            lea di,[bx+si+0x4]
00000B2C  8B00              mov ax,[bx+si]
00000B2E  53                push bx
00000B2F  C1E80A            shr ax,byte 0xa
00000B32  50                push ax
00000B33  E8AAFE            call 0x9e0
00000B36  FF                db 0xff
00000B37  FF6A4B            jmp far [bp+si+0x4b]
00000B3A  EBE2              jmp short 0xb1e
00000B3C  89C2              mov dx,ax
00000B3E  83C004            add ax,byte +0x4
00000B41  8B3A              mov di,[bp+si]
00000B43  47                inc di
00000B44  807FFF00          cmp byte [bx-0x1],0x0
00000B48  75DB              jnz 0xb25
00000B4A  8945F0            mov [di-0x10],ax
00000B4D  6A00              push byte +0x0
00000B4F  FFD3              call bx
00000B51  8B45F0            mov ax,[di-0x10]
00000B54  5A                pop dx
00000B55  EBEC              jmp short 0xb43
00000B57  8945F0            mov [di-0x10],ax
00000B5A  52                push dx
00000B5B  FFD3              call bx
00000B5D  58                pop ax
00000B5E  8B45F0            mov ax,[di-0x10]
00000B61  EBC2              jmp short 0xb25
00000B63  8D7701            lea si,[bx+0x1]
00000B66  E930FF            jmp 0xa99
00000B69  FF                db 0xff
00000B6A  FF8D65F4          dec word [di-0xb9b]
00000B6E  5B                pop bx
00000B6F  5E                pop si
00000B70  5F                pop di
00000B71  5D                pop bp
00000B72  C3                ret
00000B73  55                push bp
00000B74  89E5              mov bp,sp
00000B76  8A4508            mov al,[di+0x8]
00000B79  E6E9              out 0xe9,al
00000B7B  5D                pop bp
00000B7C  C3                ret
00000B7D  B001              mov al,0x1
00000B7F  C3                ret
00000B80  55                push bp
00000B81  668B4838          mov ecx,[bx+si+0x38]
00000B85  83E902            sub cx,byte +0x2
00000B88  66894838          mov [bx+si+0x38],ecx
00000B8C  8B403C            mov ax,[bx+si+0x3c]
00000B8F  0F                db 0x0f
00000B90  B7C9              mov bh,0xc9
00000B92  89E5              mov bp,sp
00000B94  C1E004            shl ax,byte 0x4
00000B97  668914            mov [si],edx
00000B9A  080F              or [bx],cl
00000B9C  B7D2              mov bh,0xd2
00000B9E  52                push dx
00000B9F  68650D            push word 0xd65
00000BA2  00C0              add al,al
00000BA4  68730B            push word 0xb73
00000BA7  00C0              add al,al
00000BA9  E8DEFE            call 0xa8a
00000BAC  FF                db 0xff
00000BAD  FF83C40C          inc word [bp+di+0xcc4]
00000BB1  C9                leave
00000BB2  C3                ret
00000BB3  55                push bp
00000BB4  89E5              mov bp,sp
00000BB6  53                push bx
00000BB7  8B483C            mov cx,[bx+si+0x3c]
00000BBA  0F                db 0x0f
00000BBB  B758              mov bh,0x58
00000BBD  38C1              cmp cl,al
00000BBF  E104              loope 0xbc5
00000BC1  89DA              mov dx,bx
00000BC3  668B1C            mov ebx,[si]
00000BC6  1983C202          sbb [bp+di+0x2c2],ax
00000BCA  66895038          mov [bx+si+0x38],edx
00000BCE  0F                db 0x0f
00000BCF  B7C3              mov bh,0xc3
00000BD1  50                push ax
00000BD2  68700D            push word 0xd70
00000BD5  00C0              add al,al
00000BD7  68730B            push word 0xb73
00000BDA  00C0              add al,al
00000BDC  E8ABFE            call 0xa8a
00000BDF  FF                db 0xff
00000BE0  FF89D88B          dec word [bx+di-0x7428]
00000BE4  5D                pop bp
00000BE5  FC                cld
00000BE6  C9                leave
00000BE7  C3                ret
00000BE8  55                push bp
00000BE9  89E5              mov bp,sp
00000BEB  57                push di
00000BEC  56                push si
00000BED  31F6              xor si,si
00000BEF  53                push bx
00000BF0  50                push ax
00000BF1  0FB64508          movzx ax,[di+0x8]
00000BF5  8B5D0C            mov bx,[di+0xc]
00000BF8  0F                db 0x0f
00000BF9  B714              mov bh,0x14
00000BFB  8500              test [bx+si],ax
00000BFD  0000              add [bx+si],al
00000BFF  00520F            add [bp+si+0xf],dl
00000C02  B714              mov bh,0x14
00000C04  8502              test [bp+si],ax
00000C06  0000              add [bx+si],al
00000C08  008945F0          add [bx+di-0xfbb],cl
00000C0C  52                push dx
00000C0D  687B0D            push word 0xd7b
00000C10  00C0              add al,al
00000C12  68730B            push word 0xb73
00000C15  00C0              add al,al
00000C17  E870FE            call 0xa8a
00000C1A  FF                db 0xff
00000C1B  FF8B45F0          dec word [bp+di-0xfbb]
00000C1F  83C410            add sp,byte +0x10
00000C22  0F                db 0x0f
00000C23  B73C              mov bh,0x3c
00000C25  8500              test [bx+si],ax
00000C27  0000              add [bx+si],al
00000C29  000F              add [bx],cl
00000C2B  B753              mov bh,0x53
00000C2D  3446              xor al,0x46
00000C2F  668B04            mov eax,[si]
00000C32  8502              test [bp+si],ax
00000C34  0000              add [bx+si],al
00000C36  006689            add [bp-0x77],ah
00000C39  45                inc bp
00000C3A  F089D8            lock mov ax,bx
00000C3D  E83EFF            call 0xb7e
00000C40  FF                db 0xff
00000C41  FF0F              dec word [bx]
00000C43  B753              mov bh,0x53
00000C45  3089D8E8          xor [bx+di-0x1728],cl
00000C49  33FF              xor di,di
00000C4B  FF                db 0xff
00000C4C  FF668B            jmp [bp-0x75]
00000C4F  43                inc bx
00000C50  2C8D              sub al,0x8d
00000C52  50                push ax
00000C53  0289D80F          add cl,[bx+di+0xfd8]
00000C57  B7D2              mov bh,0xd2
00000C59  E822FF            call 0xb7e
00000C5C  FF                db 0xff
00000C5D  FF0F              dec word [bx]
00000C5F  B745              mov bh,0x45
00000C61  F0897B2C          lock mov [bp+di+0x2c],di
00000C65  894330            mov [bp+di+0x30],ax
00000C68  688A0D            push word 0xd8a
00000C6B  00C0              add al,al
00000C6D  68730B            push word 0xb73
00000C70  00C0              add al,al
00000C72  E815FE            call 0xa8a
00000C75  FF                db 0xff
00000C76  FF5F58            call far [bx+0x58]
00000C79  53                push bx
00000C7A  E803F8            call 0x480
00000C7D  FF                db 0xff
00000C7E  FF5983            call far [bx+di-0x7d]
00000C81  F8                clc
00000C82  FF759D            push word [di-0x63]
00000C85  89D8              mov ax,bx
00000C87  4E                dec si
00000C88  E826FF            call 0xbb1
00000C8B  FF                db 0xff
00000C8C  FF6689            jmp [bp-0x77]
00000C8F  43                inc bx
00000C90  2C89              sub al,0x89
00000C92  D8E8              fsubr st0
00000C94  1BFF              sbb di,di
00000C96  FF                db 0xff
00000C97  FF0F              dec word [bx]
00000C99  B7C0              mov bh,0xc0
00000C9B  894330            mov [bp+di+0x30],ax
00000C9E  89D8              mov ax,bx
00000CA0  E80EFF            call 0xbb1
00000CA3  FF                db 0xff
00000CA4  FF6689            jmp [bp-0x77]
00000CA7  43                inc bx
00000CA8  3468              xor al,0x68
00000CAA  8A0D              mov cl,[di]
00000CAC  00C0              add al,al
00000CAE  68730B            push word 0xb73
00000CB1  00C0              add al,al
00000CB3  E8D4FD            call 0xa8a
00000CB6  FF                db 0xff
00000CB7  FF585A            call far [bx+si+0x5a]
00000CBA  85F6              test si,si
00000CBC  75BB              jnz 0xc79
00000CBE  0F                db 0x0f
00000CBF  B703              mov bh,0x3
00000CC1  8D65F4            lea sp,[di-0xc]
00000CC4  5B                pop bx
00000CC5  5E                pop si
00000CC6  5F                pop di
00000CC7  5D                pop bp
00000CC8  C3                ret
00000CC9  C3                ret
00000CCA  6690              xchg eax,eax
00000CCC  48                dec ax
00000CCD  656C              gs insb
00000CCF  6C                insb
00000CD0  6F                outsw
00000CD1  206672            and [bp+0x72],ah
00000CD4  6F                outsw
00000CD5  6D                insw
00000CD6  20494E            and [bx+di+0x4e],cl
00000CD9  54                push sp
00000CDA  2032              and [bp+si],dh
00000CDC  314821            xor [bx+si+0x21],cx
00000CDF  0A0D              or cl,[di]
00000CE1  2400              and al,0x0
00000CE3  6690              xchg eax,eax
00000CE5  6690              xchg eax,eax
00000CE7  6690              xchg eax,eax
00000CE9  6690              xchg eax,eax
00000CEB  6690              xchg eax,eax
00000CED  6690              xchg eax,eax
00000CEF  6690              xchg eax,eax
00000CF1  6690              xchg eax,eax
00000CF3  6690              xchg eax,eax
00000CF5  6690              xchg eax,eax
00000CF7  6690              xchg eax,eax
00000CF9  6690              xchg eax,eax
00000CFB  6690              xchg eax,eax
00000CFD  6690              xchg eax,eax
00000CFF  90                nop
00000D00  3031              xor [bx+di],dh
00000D02  3233              xor dh,[bp+di]
00000D04  3435              xor al,0x35
00000D06  3637              ss aaa
00000D08  3839              cmp [bx+di],bh
00000D0A  41                inc cx
00000D0B  42                inc dx
00000D0C  43                inc bx
00000D0D  44                inc sp
00000D0E  45                inc bp
00000D0F  46                inc si
00000D10  0100              add [bx+si],ax
00000D12  0001              add [bx+di],al
00000D14  0000              add [bx+si],al
00000D16  0100              add [bx+si],ax
00000D18  0000              add [bx+si],al
00000D1A  0000              add [bx+si],al
00000D1C  0000              add [bx+si],al
00000D1E  0000              add [bx+si],al
00000D20  00CA              add dl,cl
00000D22  9A3B00E1F5        call 0xf5e1:0x3b
00000D27  058096            add ax,0x9680
00000D2A  98                cbw
00000D2B  004042            add [bx+si+0x42],al
00000D2E  0F00A08601        verr [bx+si+0x186]
00000D33  0010              add [bx+si],dl
00000D35  27                daa
00000D36  0000              add [bx+si],al
00000D38  E80300            call 0xd3e
00000D3B  006400            add [si+0x0],ah
00000D3E  0000              add [bx+si],al
00000D40  0A00              or al,[bx+si]
00000D42  0000              add [bx+si],al
00000D44  0100              add [bx+si],ax
00000D46  0000              add [bx+si],al
00000D48  48                dec ax
00000D49  656C              gs insb
00000D4B  6C                insb
00000D4C  6F                outsw
00000D4D  2C20              sub al,0x20
00000D4F  776F              ja 0xdc0
00000D51  726C              jc 0xdbf
00000D53  642120            and [fs:bx+si],sp
00000D56  25780A            and ax,0xa78
00000D59  0D0044            or ax,0x4400
00000D5C  6964207465        imul sp,[si+0x20],word 0x6574
00000D61  7374              jnc 0xdd7
00000D63  0A00              or al,[bx+si]
00000D65  50                push ax
00000D66  7573              jnz 0xddb
00000D68  686564            push word 0x6465
00000D6B  2025              and [di],ah
00000D6D  780A              js 0xd79
00000D6F  00506F            add [bx+si+0x6f],dl
00000D72  7070              jo 0xde4
00000D74  65642025          and [fs:di],ah
00000D78  780A              js 0xd84
00000D7A  005665            add [bp+0x65],dl
00000D7D  63746F            arpl [si+0x6f],si
00000D80  723A              jc 0xdbc
00000D82  2025              and [di],ah
00000D84  783A              js 0xdc0
00000D86  25780A            and ax,0xa78
00000D89  000A              add [bp+si],cl
00000D8B  006690            add [bp-0x70],ah
00000D8E  6690              xchg eax,eax
00000D90  6690              xchg eax,eax
00000D92  6690              xchg eax,eax
00000D94  6690              xchg eax,eax
00000D96  6690              xchg eax,eax
00000D98  6690              xchg eax,eax
00000D9A  6690              xchg eax,eax
00000D9C  6690              xchg eax,eax
00000D9E  6690              xchg eax,eax
00000DA0  6690              xchg eax,eax
00000DA2  6690              xchg eax,eax
00000DA4  6690              xchg eax,eax
00000DA6  6690              xchg eax,eax
00000DA8  6690              xchg eax,eax
00000DAA  6690              xchg eax,eax
00000DAC  6690              xchg eax,eax
00000DAE  6690              xchg eax,eax
00000DB0  6690              xchg eax,eax
00000DB2  6690              xchg eax,eax
00000DB4  6690              xchg eax,eax
00000DB6  6690              xchg eax,eax
00000DB8  6690              xchg eax,eax
00000DBA  6690              xchg eax,eax
00000DBC  6690              xchg eax,eax
00000DBE  6690              xchg eax,eax
00000DC0  6690              xchg eax,eax
00000DC2  6690              xchg eax,eax
00000DC4  6690              xchg eax,eax
00000DC6  6690              xchg eax,eax
00000DC8  6690              xchg eax,eax
00000DCA  6690              xchg eax,eax
00000DCC  6690              xchg eax,eax
00000DCE  6690              xchg eax,eax
00000DD0  6690              xchg eax,eax
00000DD2  6690              xchg eax,eax
00000DD4  6690              xchg eax,eax
00000DD6  6690              xchg eax,eax
00000DD8  6690              xchg eax,eax
00000DDA  6690              xchg eax,eax
00000DDC  6690              xchg eax,eax
00000DDE  6690              xchg eax,eax
00000DE0  6690              xchg eax,eax
00000DE2  6690              xchg eax,eax
00000DE4  6690              xchg eax,eax
00000DE6  6690              xchg eax,eax
00000DE8  6690              xchg eax,eax
00000DEA  6690              xchg eax,eax
00000DEC  6690              xchg eax,eax
00000DEE  6690              xchg eax,eax
00000DF0  6690              xchg eax,eax
00000DF2  6690              xchg eax,eax
00000DF4  6690              xchg eax,eax
00000DF6  6690              xchg eax,eax
00000DF8  6690              xchg eax,eax
00000DFA  6690              xchg eax,eax
00000DFC  6690              xchg eax,eax
00000DFE  6690              xchg eax,eax
00000E00  6690              xchg eax,eax
00000E02  6690              xchg eax,eax
00000E04  6690              xchg eax,eax
00000E06  6690              xchg eax,eax
00000E08  6690              xchg eax,eax
00000E0A  6690              xchg eax,eax
00000E0C  6690              xchg eax,eax
00000E0E  6690              xchg eax,eax
00000E10  6690              xchg eax,eax
00000E12  6690              xchg eax,eax
00000E14  6690              xchg eax,eax
00000E16  6690              xchg eax,eax
00000E18  6690              xchg eax,eax
00000E1A  6690              xchg eax,eax
00000E1C  6690              xchg eax,eax
00000E1E  6690              xchg eax,eax
00000E20  6690              xchg eax,eax
00000E22  6690              xchg eax,eax
00000E24  6690              xchg eax,eax
00000E26  6690              xchg eax,eax
00000E28  6690              xchg eax,eax
00000E2A  6690              xchg eax,eax
00000E2C  6690              xchg eax,eax
00000E2E  6690              xchg eax,eax
00000E30  6690              xchg eax,eax
00000E32  6690              xchg eax,eax
00000E34  6690              xchg eax,eax
00000E36  6690              xchg eax,eax
00000E38  6690              xchg eax,eax
00000E3A  6690              xchg eax,eax
00000E3C  6690              xchg eax,eax
00000E3E  6690              xchg eax,eax
00000E40  6690              xchg eax,eax
00000E42  6690              xchg eax,eax
00000E44  6690              xchg eax,eax
00000E46  6690              xchg eax,eax
00000E48  6690              xchg eax,eax
00000E4A  6690              xchg eax,eax
00000E4C  6690              xchg eax,eax
00000E4E  6690              xchg eax,eax
00000E50  6690              xchg eax,eax
00000E52  6690              xchg eax,eax
00000E54  6690              xchg eax,eax
00000E56  6690              xchg eax,eax
00000E58  6690              xchg eax,eax
00000E5A  6690              xchg eax,eax
00000E5C  6690              xchg eax,eax
00000E5E  6690              xchg eax,eax
00000E60  6690              xchg eax,eax
00000E62  6690              xchg eax,eax
00000E64  6690              xchg eax,eax
00000E66  6690              xchg eax,eax
00000E68  6690              xchg eax,eax
00000E6A  6690              xchg eax,eax
00000E6C  6690              xchg eax,eax
00000E6E  6690              xchg eax,eax
00000E70  6690              xchg eax,eax
00000E72  6690              xchg eax,eax
00000E74  6690              xchg eax,eax
00000E76  6690              xchg eax,eax
00000E78  6690              xchg eax,eax
00000E7A  6690              xchg eax,eax
00000E7C  6690              xchg eax,eax
00000E7E  6690              xchg eax,eax
00000E80  6690              xchg eax,eax
00000E82  6690              xchg eax,eax
00000E84  6690              xchg eax,eax
00000E86  6690              xchg eax,eax
00000E88  6690              xchg eax,eax
00000E8A  6690              xchg eax,eax
00000E8C  6690              xchg eax,eax
00000E8E  6690              xchg eax,eax
00000E90  6690              xchg eax,eax
00000E92  6690              xchg eax,eax
00000E94  6690              xchg eax,eax
00000E96  6690              xchg eax,eax
00000E98  6690              xchg eax,eax
00000E9A  6690              xchg eax,eax
00000E9C  6690              xchg eax,eax
00000E9E  6690              xchg eax,eax
00000EA0  6690              xchg eax,eax
00000EA2  6690              xchg eax,eax
00000EA4  6690              xchg eax,eax
00000EA6  6690              xchg eax,eax
00000EA8  6690              xchg eax,eax
00000EAA  6690              xchg eax,eax
00000EAC  6690              xchg eax,eax
00000EAE  6690              xchg eax,eax
00000EB0  6690              xchg eax,eax
00000EB2  6690              xchg eax,eax
00000EB4  6690              xchg eax,eax
00000EB6  6690              xchg eax,eax
00000EB8  6690              xchg eax,eax
00000EBA  6690              xchg eax,eax
00000EBC  6690              xchg eax,eax
00000EBE  6690              xchg eax,eax
00000EC0  6690              xchg eax,eax
00000EC2  6690              xchg eax,eax
00000EC4  6690              xchg eax,eax
00000EC6  6690              xchg eax,eax
00000EC8  6690              xchg eax,eax
00000ECA  6690              xchg eax,eax
00000ECC  6690              xchg eax,eax
00000ECE  6690              xchg eax,eax
00000ED0  6690              xchg eax,eax
00000ED2  6690              xchg eax,eax
00000ED4  6690              xchg eax,eax
00000ED6  6690              xchg eax,eax
00000ED8  6690              xchg eax,eax
00000EDA  6690              xchg eax,eax
00000EDC  6690              xchg eax,eax
00000EDE  6690              xchg eax,eax
00000EE0  6690              xchg eax,eax
00000EE2  6690              xchg eax,eax
00000EE4  6690              xchg eax,eax
00000EE6  6690              xchg eax,eax
00000EE8  6690              xchg eax,eax
00000EEA  6690              xchg eax,eax
00000EEC  6690              xchg eax,eax
00000EEE  6690              xchg eax,eax
00000EF0  6690              xchg eax,eax
00000EF2  6690              xchg eax,eax
00000EF4  6690              xchg eax,eax
00000EF6  6690              xchg eax,eax
00000EF8  6690              xchg eax,eax
00000EFA  6690              xchg eax,eax
00000EFC  6690              xchg eax,eax
00000EFE  6690              xchg eax,eax
00000F00  6690              xchg eax,eax
00000F02  6690              xchg eax,eax
00000F04  6690              xchg eax,eax
00000F06  6690              xchg eax,eax
00000F08  6690              xchg eax,eax
00000F0A  6690              xchg eax,eax
00000F0C  6690              xchg eax,eax
00000F0E  6690              xchg eax,eax
00000F10  6690              xchg eax,eax
00000F12  6690              xchg eax,eax
00000F14  6690              xchg eax,eax
00000F16  6690              xchg eax,eax
00000F18  6690              xchg eax,eax
00000F1A  6690              xchg eax,eax
00000F1C  6690              xchg eax,eax
00000F1E  6690              xchg eax,eax
00000F20  6690              xchg eax,eax
00000F22  6690              xchg eax,eax
00000F24  6690              xchg eax,eax
00000F26  6690              xchg eax,eax
00000F28  6690              xchg eax,eax
00000F2A  6690              xchg eax,eax
00000F2C  6690              xchg eax,eax
00000F2E  6690              xchg eax,eax
00000F30  6690              xchg eax,eax
00000F32  6690              xchg eax,eax
00000F34  6690              xchg eax,eax
00000F36  6690              xchg eax,eax
00000F38  6690              xchg eax,eax
00000F3A  6690              xchg eax,eax
00000F3C  6690              xchg eax,eax
00000F3E  6690              xchg eax,eax
00000F40  6690              xchg eax,eax
00000F42  6690              xchg eax,eax
00000F44  6690              xchg eax,eax
00000F46  6690              xchg eax,eax
00000F48  6690              xchg eax,eax
00000F4A  6690              xchg eax,eax
00000F4C  6690              xchg eax,eax
00000F4E  6690              xchg eax,eax
00000F50  6690              xchg eax,eax
00000F52  6690              xchg eax,eax
00000F54  6690              xchg eax,eax
00000F56  6690              xchg eax,eax
00000F58  6690              xchg eax,eax
00000F5A  6690              xchg eax,eax
00000F5C  6690              xchg eax,eax
00000F5E  6690              xchg eax,eax
00000F60  6690              xchg eax,eax
00000F62  6690              xchg eax,eax
00000F64  6690              xchg eax,eax
00000F66  6690              xchg eax,eax
00000F68  6690              xchg eax,eax
00000F6A  6690              xchg eax,eax
00000F6C  6690              xchg eax,eax
00000F6E  6690              xchg eax,eax
00000F70  6690              xchg eax,eax
00000F72  6690              xchg eax,eax
00000F74  6690              xchg eax,eax
00000F76  6690              xchg eax,eax
00000F78  6690              xchg eax,eax
00000F7A  6690              xchg eax,eax
00000F7C  6690              xchg eax,eax
00000F7E  6690              xchg eax,eax
00000F80  6690              xchg eax,eax
00000F82  6690              xchg eax,eax
00000F84  6690              xchg eax,eax
00000F86  6690              xchg eax,eax
00000F88  6690              xchg eax,eax
00000F8A  6690              xchg eax,eax
00000F8C  6690              xchg eax,eax
00000F8E  6690              xchg eax,eax
00000F90  6690              xchg eax,eax
00000F92  6690              xchg eax,eax
00000F94  6690              xchg eax,eax
00000F96  6690              xchg eax,eax
00000F98  6690              xchg eax,eax
00000F9A  6690              xchg eax,eax
00000F9C  6690              xchg eax,eax
00000F9E  6690              xchg eax,eax
00000FA0  6690              xchg eax,eax
00000FA2  6690              xchg eax,eax
00000FA4  6690              xchg eax,eax
00000FA6  6690              xchg eax,eax
00000FA8  6690              xchg eax,eax
00000FAA  6690              xchg eax,eax
00000FAC  6690              xchg eax,eax
00000FAE  6690              xchg eax,eax
00000FB0  6690              xchg eax,eax
00000FB2  6690              xchg eax,eax
00000FB4  6690              xchg eax,eax
00000FB6  6690              xchg eax,eax
00000FB8  6690              xchg eax,eax
00000FBA  6690              xchg eax,eax
00000FBC  6690              xchg eax,eax
00000FBE  6690              xchg eax,eax
00000FC0  6690              xchg eax,eax
00000FC2  6690              xchg eax,eax
00000FC4  6690              xchg eax,eax
00000FC6  6690              xchg eax,eax
00000FC8  6690              xchg eax,eax
00000FCA  6690              xchg eax,eax
00000FCC  6690              xchg eax,eax
00000FCE  6690              xchg eax,eax
00000FD0  6690              xchg eax,eax
00000FD2  6690              xchg eax,eax
00000FD4  6690              xchg eax,eax
00000FD6  6690              xchg eax,eax
00000FD8  6690              xchg eax,eax
00000FDA  6690              xchg eax,eax
00000FDC  6690              xchg eax,eax
00000FDE  6690              xchg eax,eax
00000FE0  6690              xchg eax,eax
00000FE2  6690              xchg eax,eax
00000FE4  6690              xchg eax,eax
00000FE6  6690              xchg eax,eax
00000FE8  6690              xchg eax,eax
00000FEA  6690              xchg eax,eax
00000FEC  6690              xchg eax,eax
00000FEE  6690              xchg eax,eax
00000FF0  6690              xchg eax,eax
00000FF2  6690              xchg eax,eax
00000FF4  6690              xchg eax,eax
00000FF6  6690              xchg eax,eax
00000FF8  6690              xchg eax,eax
00000FFA  6690              xchg eax,eax
00000FFC  6690              xchg eax,eax
00000FFE  6690              xchg eax,eax
00001000  FF07              inc word [bx]
00001002  40                inc ax
00001003  2000              and [bx+si],al
00001005  C00000            rol byte [bx+si],byte 0x0
00001008  3F                aas
00001009  00C0              add al,al
0000100B  4C                dec sp
0000100C  00C0              add al,al
0000100E  0000              add [bx+si],al
00001010  CC                int3
00001011  0000              add [bx+si],al
00001013  0000              add [bx+si],al
00001015  0000              add [bx+si],al
00001017  0000              add [bx+si],al
00001019  0000              add [bx+si],al
0000101B  0000              add [bx+si],al
0000101D  0000              add [bx+si],al
0000101F  0080FA07          add [bx+si+0x7fa],al
00001023  7702              ja 0x1027
00001025  EB04              jmp short 0x102b
00001027  6683C268          add edx,byte +0x68
0000102B  6683C208          add edx,byte +0x8
0000102F  66B830000000      mov eax,0x30
00001035  8ED8              mov ds,ax
00001037  668926C030        mov [0x30c0],esp
0000103C  8ED0              mov ss,ax
0000103E  8EC0              mov es,ax
00001040  66BC00500000      mov esp,0x5000
00001046  E421              in al,0x21
00001048  A2DA30            mov [0x30da],al
0000104B  E4A1              in al,0xa1
0000104D  A2DB30            mov [0x30db],al
00001050  B0FF              mov al,0xff
00001052  E621              out 0x21,al
00001054  E6A1              out 0xa1,al
00001056  660F010EC430      o32 sidt [0x30c4]
0000105C  0F20C0            mov eax,cr0
0000105F  663501000080      xor eax,0x80000001
00001065  0F22C0            mov cr0,eax
00001068  0F011ED030        lidt [0x30d0]
0000106D  EA6230FFFF        jmp 0xffff:0x3062
00001072  B8FFFF            mov ax,0xffff
00001075  8ED8              mov ds,ax
00001077  8ED0              mov ss,ax
00001079  31C0              xor ax,ax
0000107B  8EC0              mov es,ax
0000107D  8EE0              mov fs,ax
0000107F  8EE8              mov gs,ax
00001081  6631DB            xor ebx,ebx
00001084  6631C9            xor ecx,ecx
00001087  6631F6            xor esi,esi
0000108A  6631FF            xor edi,edi
0000108D  6631ED            xor ebp,ebp
00001090  9C                pushf
00001091  2667FF1C95000000  call far [dword es:edx*4+0x0]
         -00
0000109A  A0DA30            mov al,[0x30da]
0000109D  E621              out 0x21,al
0000109F  A0DB30            mov al,[0x30db]
000010A2  E6A1              out 0xa1,al
000010A4  0F20C0            mov eax,cr0
000010A7  663501000080      xor eax,0x80000001
000010AD  0F22C0            mov cr0,eax
000010B0  66B810000000      mov eax,0x10
000010B6  8ED0              mov ss,ax
000010B8  8EC0              mov es,ax
000010BA  8ED8              mov ds,ax
000010BC  66678B25B0301000  mov esp,[dword 0x1030b0]
000010C4  66670F011DB43010  o32 lidt [dword 0x1030b4]
         -00
000010CD  66CB              retfd
000010CF  90                nop
000010D0  0000              add [bx+si],al
000010D2  0000              add [bx+si],al
000010D4  0000              add [bx+si],al
000010D6  0000              add [bx+si],al
000010D8  0000              add [bx+si],al
000010DA  0000              add [bx+si],al
000010DC  0000              add [bx+si],al
000010DE  0000              add [bx+si],al
000010E0  0004              add [si],al
000010E2  0000              add [bx+si],al
000010E4  0000              add [bx+si],al
000010E6  0000              add [bx+si],al
000010E8  0000              add [bx+si],al
000010EA  0000              add [bx+si],al
000010EC  0000              add [bx+si],al
000010EE  0000              add [bx+si],al
000010F0  0000              add [bx+si],al
000010F2  0000              add [bx+si],al
000010F4  0000              add [bx+si],al
000010F6  0000              add [bx+si],al
000010F8  0000              add [bx+si],al
000010FA  0000              add [bx+si],al
000010FC  0000              add [bx+si],al
000010FE  0000              add [bx+si],al
00001100  0000              add [bx+si],al
00001102  0000              add [bx+si],al
00001104  0000              add [bx+si],al
00001106  0000              add [bx+si],al
00001108  0000              add [bx+si],al
0000110A  0000              add [bx+si],al
0000110C  0000              add [bx+si],al
0000110E  0000              add [bx+si],al
00001110  0000              add [bx+si],al
00001112  0000              add [bx+si],al
00001114  0000              add [bx+si],al
00001116  0000              add [bx+si],al
00001118  0000              add [bx+si],al
0000111A  0000              add [bx+si],al
0000111C  0000              add [bx+si],al
0000111E  0000              add [bx+si],al
00001120  0000              add [bx+si],al
00001122  0000              add [bx+si],al
00001124  0000              add [bx+si],al
00001126  0000              add [bx+si],al
00001128  0000              add [bx+si],al
0000112A  0000              add [bx+si],al
0000112C  0000              add [bx+si],al
0000112E  0000              add [bx+si],al
00001130  0000              add [bx+si],al
00001132  0000              add [bx+si],al
00001134  0000              add [bx+si],al
00001136  0000              add [bx+si],al
00001138  0000              add [bx+si],al
0000113A  0000              add [bx+si],al
0000113C  0000              add [bx+si],al
0000113E  0000              add [bx+si],al
00001140  0000              add [bx+si],al
00001142  0000              add [bx+si],al
00001144  0000              add [bx+si],al
00001146  0000              add [bx+si],al
00001148  0000              add [bx+si],al
0000114A  0000              add [bx+si],al
0000114C  0000              add [bx+si],al
0000114E  0000              add [bx+si],al
00001150  0000              add [bx+si],al
00001152  0000              add [bx+si],al
00001154  0000              add [bx+si],al
00001156  0000              add [bx+si],al
00001158  0000              add [bx+si],al
0000115A  0000              add [bx+si],al
0000115C  0000              add [bx+si],al
0000115E  0000              add [bx+si],al
00001160  0000              add [bx+si],al
00001162  0000              add [bx+si],al
00001164  0000              add [bx+si],al
00001166  0000              add [bx+si],al
00001168  0000              add [bx+si],al
0000116A  0000              add [bx+si],al
0000116C  0000              add [bx+si],al
0000116E  0000              add [bx+si],al
00001170  0000              add [bx+si],al
00001172  0000              add [bx+si],al
00001174  0000              add [bx+si],al
00001176  0000              add [bx+si],al
00001178  0000              add [bx+si],al
0000117A  0000              add [bx+si],al
0000117C  0000              add [bx+si],al
0000117E  0000              add [bx+si],al
00001180  0000              add [bx+si],al
00001182  0000              add [bx+si],al
00001184  0000              add [bx+si],al
00001186  0000              add [bx+si],al
00001188  0000              add [bx+si],al
0000118A  0000              add [bx+si],al
0000118C  0000              add [bx+si],al
0000118E  0000              add [bx+si],al
00001190  0000              add [bx+si],al
00001192  0000              add [bx+si],al
00001194  0000              add [bx+si],al
00001196  0000              add [bx+si],al
00001198  0000              add [bx+si],al
0000119A  0000              add [bx+si],al
0000119C  0000              add [bx+si],al
0000119E  0000              add [bx+si],al
000011A0  0000              add [bx+si],al
000011A2  0000              add [bx+si],al
000011A4  0000              add [bx+si],al
000011A6  0000              add [bx+si],al
000011A8  0000              add [bx+si],al
000011AA  0000              add [bx+si],al
000011AC  0000              add [bx+si],al
000011AE  0000              add [bx+si],al
000011B0  0000              add [bx+si],al
000011B2  0000              add [bx+si],al
000011B4  0000              add [bx+si],al
000011B6  0000              add [bx+si],al
000011B8  0000              add [bx+si],al
000011BA  0000              add [bx+si],al
000011BC  0000              add [bx+si],al
000011BE  0000              add [bx+si],al
000011C0  0000              add [bx+si],al
000011C2  0000              add [bx+si],al
000011C4  0000              add [bx+si],al
000011C6  0000              add [bx+si],al
000011C8  0000              add [bx+si],al
000011CA  0000              add [bx+si],al
000011CC  0000              add [bx+si],al
000011CE  0000              add [bx+si],al
000011D0  0000              add [bx+si],al
000011D2  0000              add [bx+si],al
000011D4  0000              add [bx+si],al
000011D6  0000              add [bx+si],al
000011D8  0000              add [bx+si],al
000011DA  0000              add [bx+si],al
000011DC  0000              add [bx+si],al
000011DE  0000              add [bx+si],al
000011E0  0000              add [bx+si],al
000011E2  0000              add [bx+si],al
000011E4  0000              add [bx+si],al
000011E6  0000              add [bx+si],al
000011E8  0000              add [bx+si],al
000011EA  0000              add [bx+si],al
000011EC  0000              add [bx+si],al
000011EE  0000              add [bx+si],al
000011F0  0000              add [bx+si],al
000011F2  0000              add [bx+si],al
000011F4  0000              add [bx+si],al
000011F6  0000              add [bx+si],al
000011F8  0000              add [bx+si],al
000011FA  0000              add [bx+si],al
000011FC  0000              add [bx+si],al
000011FE  0000              add [bx+si],al
00001200  0000              add [bx+si],al
00001202  0000              add [bx+si],al
00001204  0000              add [bx+si],al
00001206  0000              add [bx+si],al
00001208  0000              add [bx+si],al
0000120A  0000              add [bx+si],al
0000120C  0000              add [bx+si],al
0000120E  0000              add [bx+si],al
00001210  0000              add [bx+si],al
00001212  0000              add [bx+si],al
00001214  0000              add [bx+si],al
00001216  0000              add [bx+si],al
00001218  0000              add [bx+si],al
0000121A  0000              add [bx+si],al
0000121C  0000              add [bx+si],al
0000121E  0000              add [bx+si],al
00001220  0000              add [bx+si],al
00001222  0000              add [bx+si],al
00001224  0000              add [bx+si],al
00001226  0000              add [bx+si],al
00001228  0000              add [bx+si],al
0000122A  0000              add [bx+si],al
0000122C  0000              add [bx+si],al
0000122E  0000              add [bx+si],al
00001230  0000              add [bx+si],al
00001232  0000              add [bx+si],al
00001234  0000              add [bx+si],al
00001236  0000              add [bx+si],al
00001238  0000              add [bx+si],al
0000123A  0000              add [bx+si],al
0000123C  0000              add [bx+si],al
0000123E  0000              add [bx+si],al
00001240  0000              add [bx+si],al
00001242  0000              add [bx+si],al
00001244  0000              add [bx+si],al
00001246  0000              add [bx+si],al
00001248  0000              add [bx+si],al
0000124A  0000              add [bx+si],al
0000124C  0000              add [bx+si],al
0000124E  0000              add [bx+si],al
00001250  0000              add [bx+si],al
00001252  0000              add [bx+si],al
00001254  0000              add [bx+si],al
00001256  0000              add [bx+si],al
00001258  0000              add [bx+si],al
0000125A  0000              add [bx+si],al
0000125C  0000              add [bx+si],al
0000125E  0000              add [bx+si],al
00001260  0000              add [bx+si],al
00001262  0000              add [bx+si],al
00001264  0000              add [bx+si],al
00001266  0000              add [bx+si],al
00001268  0000              add [bx+si],al
0000126A  0000              add [bx+si],al
0000126C  0000              add [bx+si],al
0000126E  0000              add [bx+si],al
00001270  0000              add [bx+si],al
00001272  0000              add [bx+si],al
00001274  0000              add [bx+si],al
00001276  0000              add [bx+si],al
00001278  0000              add [bx+si],al
0000127A  0000              add [bx+si],al
0000127C  0000              add [bx+si],al
0000127E  0000              add [bx+si],al
00001280  0000              add [bx+si],al
00001282  0000              add [bx+si],al
00001284  0000              add [bx+si],al
00001286  0000              add [bx+si],al
00001288  0000              add [bx+si],al
0000128A  0000              add [bx+si],al
0000128C  0000              add [bx+si],al
0000128E  0000              add [bx+si],al
00001290  0000              add [bx+si],al
00001292  0000              add [bx+si],al
00001294  0000              add [bx+si],al
00001296  0000              add [bx+si],al
00001298  0000              add [bx+si],al
0000129A  0000              add [bx+si],al
0000129C  0000              add [bx+si],al
0000129E  0000              add [bx+si],al
000012A0  0000              add [bx+si],al
000012A2  0000              add [bx+si],al
000012A4  0000              add [bx+si],al
000012A6  0000              add [bx+si],al
000012A8  0000              add [bx+si],al
000012AA  0000              add [bx+si],al
000012AC  0000              add [bx+si],al
000012AE  0000              add [bx+si],al
000012B0  0000              add [bx+si],al
000012B2  0000              add [bx+si],al
000012B4  0000              add [bx+si],al
000012B6  0000              add [bx+si],al
000012B8  0000              add [bx+si],al
000012BA  0000              add [bx+si],al
000012BC  0000              add [bx+si],al
000012BE  0000              add [bx+si],al
000012C0  0000              add [bx+si],al
000012C2  0000              add [bx+si],al
000012C4  0000              add [bx+si],al
000012C6  0000              add [bx+si],al
000012C8  0000              add [bx+si],al
000012CA  0000              add [bx+si],al
000012CC  0000              add [bx+si],al
000012CE  0000              add [bx+si],al
000012D0  0000              add [bx+si],al
000012D2  0000              add [bx+si],al
000012D4  0000              add [bx+si],al
000012D6  0000              add [bx+si],al
000012D8  0000              add [bx+si],al
000012DA  0000              add [bx+si],al
000012DC  0000              add [bx+si],al
000012DE  0000              add [bx+si],al
000012E0  0000              add [bx+si],al
000012E2  0000              add [bx+si],al
000012E4  0000              add [bx+si],al
000012E6  0000              add [bx+si],al
000012E8  0000              add [bx+si],al
000012EA  0000              add [bx+si],al
000012EC  0000              add [bx+si],al
000012EE  0000              add [bx+si],al
000012F0  0000              add [bx+si],al
000012F2  0000              add [bx+si],al
000012F4  0000              add [bx+si],al
000012F6  0000              add [bx+si],al
000012F8  0000              add [bx+si],al
000012FA  0000              add [bx+si],al
000012FC  0000              add [bx+si],al
000012FE  0000              add [bx+si],al
00001300  0000              add [bx+si],al
00001302  0000              add [bx+si],al
00001304  0000              add [bx+si],al
00001306  0000              add [bx+si],al
00001308  0000              add [bx+si],al
0000130A  0000              add [bx+si],al
0000130C  0000              add [bx+si],al
0000130E  0000              add [bx+si],al
00001310  0000              add [bx+si],al
00001312  0000              add [bx+si],al
00001314  0000              add [bx+si],al
00001316  0000              add [bx+si],al
00001318  0000              add [bx+si],al
0000131A  0000              add [bx+si],al
0000131C  0000              add [bx+si],al
0000131E  0000              add [bx+si],al
00001320  0000              add [bx+si],al
00001322  0000              add [bx+si],al
00001324  0000              add [bx+si],al
00001326  0000              add [bx+si],al
00001328  0000              add [bx+si],al
0000132A  0000              add [bx+si],al
0000132C  0000              add [bx+si],al
0000132E  0000              add [bx+si],al
00001330  0000              add [bx+si],al
00001332  0000              add [bx+si],al
00001334  0000              add [bx+si],al
00001336  0000              add [bx+si],al
00001338  0000              add [bx+si],al
0000133A  0000              add [bx+si],al
0000133C  0000              add [bx+si],al
0000133E  0000              add [bx+si],al
00001340  0000              add [bx+si],al
00001342  0000              add [bx+si],al
00001344  0000              add [bx+si],al
00001346  0000              add [bx+si],al
00001348  0000              add [bx+si],al
0000134A  0000              add [bx+si],al
0000134C  0000              add [bx+si],al
0000134E  0000              add [bx+si],al
00001350  0000              add [bx+si],al
00001352  0000              add [bx+si],al
00001354  0000              add [bx+si],al
00001356  0000              add [bx+si],al
00001358  0000              add [bx+si],al
0000135A  0000              add [bx+si],al
0000135C  0000              add [bx+si],al
0000135E  0000              add [bx+si],al
00001360  0000              add [bx+si],al
00001362  0000              add [bx+si],al
00001364  0000              add [bx+si],al
00001366  0000              add [bx+si],al
00001368  0000              add [bx+si],al
0000136A  0000              add [bx+si],al
0000136C  0000              add [bx+si],al
0000136E  0000              add [bx+si],al
00001370  0000              add [bx+si],al
00001372  0000              add [bx+si],al
00001374  0000              add [bx+si],al
00001376  0000              add [bx+si],al
00001378  0000              add [bx+si],al
0000137A  0000              add [bx+si],al
0000137C  0000              add [bx+si],al
0000137E  0000              add [bx+si],al
00001380  0000              add [bx+si],al
00001382  0000              add [bx+si],al
00001384  0000              add [bx+si],al
00001386  0000              add [bx+si],al
00001388  0000              add [bx+si],al
0000138A  0000              add [bx+si],al
0000138C  0000              add [bx+si],al
0000138E  0000              add [bx+si],al
00001390  0000              add [bx+si],al
00001392  0000              add [bx+si],al
00001394  0000              add [bx+si],al
00001396  0000              add [bx+si],al
00001398  0000              add [bx+si],al
0000139A  0000              add [bx+si],al
0000139C  0000              add [bx+si],al
0000139E  0000              add [bx+si],al
000013A0  0000              add [bx+si],al
000013A2  0000              add [bx+si],al
000013A4  0000              add [bx+si],al
000013A6  0000              add [bx+si],al
000013A8  0000              add [bx+si],al
000013AA  0000              add [bx+si],al
000013AC  0000              add [bx+si],al
000013AE  0000              add [bx+si],al
000013B0  0000              add [bx+si],al
000013B2  0000              add [bx+si],al
000013B4  0000              add [bx+si],al
000013B6  0000              add [bx+si],al
000013B8  0000              add [bx+si],al
000013BA  0000              add [bx+si],al
000013BC  0000              add [bx+si],al
000013BE  0000              add [bx+si],al
000013C0  0000              add [bx+si],al
000013C2  0000              add [bx+si],al
000013C4  0000              add [bx+si],al
000013C6  0000              add [bx+si],al
000013C8  0000              add [bx+si],al
000013CA  0000              add [bx+si],al
000013CC  0000              add [bx+si],al
000013CE  0000              add [bx+si],al
000013D0  0000              add [bx+si],al
000013D2  0000              add [bx+si],al
000013D4  0000              add [bx+si],al
000013D6  0000              add [bx+si],al
000013D8  0000              add [bx+si],al
000013DA  0000              add [bx+si],al
000013DC  0000              add [bx+si],al
000013DE  0000              add [bx+si],al
000013E0  0000              add [bx+si],al
000013E2  0000              add [bx+si],al
000013E4  0000              add [bx+si],al
000013E6  0000              add [bx+si],al
000013E8  0000              add [bx+si],al
000013EA  0000              add [bx+si],al
000013EC  0000              add [bx+si],al
000013EE  0000              add [bx+si],al
000013F0  0000              add [bx+si],al
000013F2  0000              add [bx+si],al
000013F4  0000              add [bx+si],al
000013F6  0000              add [bx+si],al
000013F8  0000              add [bx+si],al
000013FA  0000              add [bx+si],al
000013FC  0000              add [bx+si],al
000013FE  0000              add [bx+si],al
00001400  0000              add [bx+si],al
00001402  0000              add [bx+si],al
00001404  0000              add [bx+si],al
00001406  0000              add [bx+si],al
00001408  0000              add [bx+si],al
0000140A  0000              add [bx+si],al
0000140C  0000              add [bx+si],al
0000140E  0000              add [bx+si],al
00001410  0000              add [bx+si],al
00001412  0000              add [bx+si],al
00001414  0000              add [bx+si],al
00001416  0000              add [bx+si],al
00001418  0000              add [bx+si],al
0000141A  0000              add [bx+si],al
0000141C  0000              add [bx+si],al
0000141E  0000              add [bx+si],al
00001420  0000              add [bx+si],al
00001422  0000              add [bx+si],al
00001424  0000              add [bx+si],al
00001426  0000              add [bx+si],al
00001428  0000              add [bx+si],al
0000142A  0000              add [bx+si],al
0000142C  0000              add [bx+si],al
0000142E  0000              add [bx+si],al
00001430  0000              add [bx+si],al
00001432  0000              add [bx+si],al
00001434  0000              add [bx+si],al
00001436  0000              add [bx+si],al
00001438  0000              add [bx+si],al
0000143A  0000              add [bx+si],al
0000143C  0000              add [bx+si],al
0000143E  0000              add [bx+si],al
00001440  0000              add [bx+si],al
00001442  0000              add [bx+si],al
00001444  0000              add [bx+si],al
00001446  0000              add [bx+si],al
00001448  0000              add [bx+si],al
0000144A  0000              add [bx+si],al
0000144C  0000              add [bx+si],al
0000144E  0000              add [bx+si],al
00001450  0000              add [bx+si],al
00001452  0000              add [bx+si],al
00001454  0000              add [bx+si],al
00001456  0000              add [bx+si],al
00001458  0000              add [bx+si],al
0000145A  0000              add [bx+si],al
0000145C  0000              add [bx+si],al
0000145E  0000              add [bx+si],al
00001460  0000              add [bx+si],al
00001462  0000              add [bx+si],al
00001464  0000              add [bx+si],al
00001466  0000              add [bx+si],al
00001468  0000              add [bx+si],al
0000146A  0000              add [bx+si],al
0000146C  0000              add [bx+si],al
0000146E  0000              add [bx+si],al
00001470  0000              add [bx+si],al
00001472  0000              add [bx+si],al
00001474  0000              add [bx+si],al
00001476  0000              add [bx+si],al
00001478  0000              add [bx+si],al
0000147A  0000              add [bx+si],al
0000147C  0000              add [bx+si],al
0000147E  0000              add [bx+si],al
00001480  0000              add [bx+si],al
00001482  0000              add [bx+si],al
00001484  0000              add [bx+si],al
00001486  0000              add [bx+si],al
00001488  0000              add [bx+si],al
0000148A  0000              add [bx+si],al
0000148C  0000              add [bx+si],al
0000148E  0000              add [bx+si],al
00001490  0000              add [bx+si],al
00001492  0000              add [bx+si],al
00001494  0000              add [bx+si],al
00001496  0000              add [bx+si],al
00001498  0000              add [bx+si],al
0000149A  0000              add [bx+si],al
0000149C  0000              add [bx+si],al
0000149E  0000              add [bx+si],al
000014A0  0000              add [bx+si],al
000014A2  0000              add [bx+si],al
000014A4  0000              add [bx+si],al
000014A6  0000              add [bx+si],al
000014A8  0000              add [bx+si],al
000014AA  0000              add [bx+si],al
000014AC  0000              add [bx+si],al
000014AE  0000              add [bx+si],al
000014B0  0000              add [bx+si],al
000014B2  0000              add [bx+si],al
000014B4  0000              add [bx+si],al
000014B6  0000              add [bx+si],al
000014B8  0000              add [bx+si],al
000014BA  0000              add [bx+si],al
000014BC  0000              add [bx+si],al
000014BE  0000              add [bx+si],al
000014C0  0000              add [bx+si],al
000014C2  0000              add [bx+si],al
000014C4  0000              add [bx+si],al
000014C6  0000              add [bx+si],al
000014C8  0000              add [bx+si],al
000014CA  0000              add [bx+si],al
000014CC  0000              add [bx+si],al
000014CE  0000              add [bx+si],al
000014D0  0000              add [bx+si],al
000014D2  0000              add [bx+si],al
000014D4  0000              add [bx+si],al
000014D6  0000              add [bx+si],al
000014D8  0000              add [bx+si],al
000014DA  0000              add [bx+si],al
000014DC  0000              add [bx+si],al
000014DE  0000              add [bx+si],al
000014E0  0000              add [bx+si],al
000014E2  0000              add [bx+si],al
000014E4  0000              add [bx+si],al
000014E6  0000              add [bx+si],al
000014E8  0000              add [bx+si],al
000014EA  0000              add [bx+si],al
000014EC  0000              add [bx+si],al
000014EE  0000              add [bx+si],al
000014F0  0000              add [bx+si],al
000014F2  0000              add [bx+si],al
000014F4  0000              add [bx+si],al
000014F6  0000              add [bx+si],al
000014F8  0000              add [bx+si],al
000014FA  0000              add [bx+si],al
000014FC  0000              add [bx+si],al
000014FE  0000              add [bx+si],al
00001500  0000              add [bx+si],al
00001502  0000              add [bx+si],al
00001504  0000              add [bx+si],al
00001506  0000              add [bx+si],al
00001508  0000              add [bx+si],al
0000150A  0000              add [bx+si],al
0000150C  0000              add [bx+si],al
0000150E  0000              add [bx+si],al
00001510  0000              add [bx+si],al
00001512  0000              add [bx+si],al
00001514  0000              add [bx+si],al
00001516  0000              add [bx+si],al
00001518  0000              add [bx+si],al
0000151A  0000              add [bx+si],al
0000151C  0000              add [bx+si],al
0000151E  0000              add [bx+si],al
00001520  0000              add [bx+si],al
00001522  0000              add [bx+si],al
00001524  0000              add [bx+si],al
00001526  0000              add [bx+si],al
00001528  0000              add [bx+si],al
0000152A  0000              add [bx+si],al
0000152C  0000              add [bx+si],al
0000152E  0000              add [bx+si],al
00001530  0000              add [bx+si],al
00001532  0000              add [bx+si],al
00001534  0000              add [bx+si],al
00001536  0000              add [bx+si],al
00001538  0000              add [bx+si],al
0000153A  0000              add [bx+si],al
0000153C  0000              add [bx+si],al
0000153E  0000              add [bx+si],al
00001540  0000              add [bx+si],al
00001542  0000              add [bx+si],al
00001544  0000              add [bx+si],al
00001546  0000              add [bx+si],al
00001548  0000              add [bx+si],al
0000154A  0000              add [bx+si],al
0000154C  0000              add [bx+si],al
0000154E  0000              add [bx+si],al
00001550  0000              add [bx+si],al
00001552  0000              add [bx+si],al
00001554  0000              add [bx+si],al
00001556  0000              add [bx+si],al
00001558  0000              add [bx+si],al
0000155A  0000              add [bx+si],al
0000155C  0000              add [bx+si],al
0000155E  0000              add [bx+si],al
00001560  0000              add [bx+si],al
00001562  0000              add [bx+si],al
00001564  0000              add [bx+si],al
00001566  0000              add [bx+si],al
00001568  0000              add [bx+si],al
0000156A  0000              add [bx+si],al
0000156C  0000              add [bx+si],al
0000156E  0000              add [bx+si],al
00001570  0000              add [bx+si],al
00001572  0000              add [bx+si],al
00001574  0000              add [bx+si],al
00001576  0000              add [bx+si],al
00001578  0000              add [bx+si],al
0000157A  0000              add [bx+si],al
0000157C  0000              add [bx+si],al
0000157E  0000              add [bx+si],al
00001580  0000              add [bx+si],al
00001582  0000              add [bx+si],al
00001584  0000              add [bx+si],al
00001586  0000              add [bx+si],al
00001588  0000              add [bx+si],al
0000158A  0000              add [bx+si],al
0000158C  0000              add [bx+si],al
0000158E  0000              add [bx+si],al
00001590  0000              add [bx+si],al
00001592  0000              add [bx+si],al
00001594  0000              add [bx+si],al
00001596  0000              add [bx+si],al
00001598  0000              add [bx+si],al
0000159A  0000              add [bx+si],al
0000159C  0000              add [bx+si],al
0000159E  0000              add [bx+si],al
000015A0  0000              add [bx+si],al
000015A2  0000              add [bx+si],al
000015A4  0000              add [bx+si],al
000015A6  0000              add [bx+si],al
000015A8  0000              add [bx+si],al
000015AA  0000              add [bx+si],al
000015AC  0000              add [bx+si],al
000015AE  0000              add [bx+si],al
000015B0  0000              add [bx+si],al
000015B2  0000              add [bx+si],al
000015B4  0000              add [bx+si],al
000015B6  0000              add [bx+si],al
000015B8  0000              add [bx+si],al
000015BA  0000              add [bx+si],al
000015BC  0000              add [bx+si],al
000015BE  0000              add [bx+si],al
000015C0  0000              add [bx+si],al
000015C2  0000              add [bx+si],al
000015C4  0000              add [bx+si],al
000015C6  0000              add [bx+si],al
000015C8  0000              add [bx+si],al
000015CA  0000              add [bx+si],al
000015CC  0000              add [bx+si],al
000015CE  0000              add [bx+si],al
000015D0  0000              add [bx+si],al
000015D2  0000              add [bx+si],al
000015D4  0000              add [bx+si],al
000015D6  0000              add [bx+si],al
000015D8  0000              add [bx+si],al
000015DA  0000              add [bx+si],al
000015DC  0000              add [bx+si],al
000015DE  0000              add [bx+si],al
000015E0  0000              add [bx+si],al
000015E2  0000              add [bx+si],al
000015E4  0000              add [bx+si],al
000015E6  0000              add [bx+si],al
000015E8  0000              add [bx+si],al
000015EA  0000              add [bx+si],al
000015EC  0000              add [bx+si],al
000015EE  0000              add [bx+si],al
000015F0  0000              add [bx+si],al
000015F2  0000              add [bx+si],al
000015F4  0000              add [bx+si],al
000015F6  0000              add [bx+si],al
000015F8  0000              add [bx+si],al
000015FA  0000              add [bx+si],al
000015FC  0000              add [bx+si],al
000015FE  0000              add [bx+si],al
00001600  0000              add [bx+si],al
00001602  0000              add [bx+si],al
00001604  0000              add [bx+si],al
00001606  0000              add [bx+si],al
00001608  0000              add [bx+si],al
0000160A  0000              add [bx+si],al
0000160C  0000              add [bx+si],al
0000160E  0000              add [bx+si],al
00001610  0000              add [bx+si],al
00001612  0000              add [bx+si],al
00001614  0000              add [bx+si],al
00001616  0000              add [bx+si],al
00001618  0000              add [bx+si],al
0000161A  0000              add [bx+si],al
0000161C  0000              add [bx+si],al
0000161E  0000              add [bx+si],al
00001620  0000              add [bx+si],al
00001622  0000              add [bx+si],al
00001624  0000              add [bx+si],al
00001626  0000              add [bx+si],al
00001628  0000              add [bx+si],al
0000162A  0000              add [bx+si],al
0000162C  0000              add [bx+si],al
0000162E  0000              add [bx+si],al
00001630  0000              add [bx+si],al
00001632  0000              add [bx+si],al
00001634  0000              add [bx+si],al
00001636  0000              add [bx+si],al
00001638  0000              add [bx+si],al
0000163A  0000              add [bx+si],al
0000163C  0000              add [bx+si],al
0000163E  0000              add [bx+si],al
00001640  0000              add [bx+si],al
00001642  0000              add [bx+si],al
00001644  0000              add [bx+si],al
00001646  0000              add [bx+si],al
00001648  0000              add [bx+si],al
0000164A  0000              add [bx+si],al
0000164C  0000              add [bx+si],al
0000164E  0000              add [bx+si],al
00001650  0000              add [bx+si],al
00001652  0000              add [bx+si],al
00001654  0000              add [bx+si],al
00001656  0000              add [bx+si],al
00001658  0000              add [bx+si],al
0000165A  0000              add [bx+si],al
0000165C  0000              add [bx+si],al
0000165E  0000              add [bx+si],al
00001660  0000              add [bx+si],al
00001662  0000              add [bx+si],al
00001664  0000              add [bx+si],al
00001666  0000              add [bx+si],al
00001668  0000              add [bx+si],al
0000166A  0000              add [bx+si],al
0000166C  0000              add [bx+si],al
0000166E  0000              add [bx+si],al
00001670  0000              add [bx+si],al
00001672  0000              add [bx+si],al
00001674  0000              add [bx+si],al
00001676  0000              add [bx+si],al
00001678  0000              add [bx+si],al
0000167A  0000              add [bx+si],al
0000167C  0000              add [bx+si],al
0000167E  0000              add [bx+si],al
00001680  0000              add [bx+si],al
00001682  0000              add [bx+si],al
00001684  0000              add [bx+si],al
00001686  0000              add [bx+si],al
00001688  0000              add [bx+si],al
0000168A  0000              add [bx+si],al
0000168C  0000              add [bx+si],al
0000168E  0000              add [bx+si],al
00001690  0000              add [bx+si],al
00001692  0000              add [bx+si],al
00001694  0000              add [bx+si],al
00001696  0000              add [bx+si],al
00001698  0000              add [bx+si],al
0000169A  0000              add [bx+si],al
0000169C  0000              add [bx+si],al
0000169E  0000              add [bx+si],al
000016A0  0000              add [bx+si],al
000016A2  0000              add [bx+si],al
000016A4  0000              add [bx+si],al
000016A6  0000              add [bx+si],al
000016A8  0000              add [bx+si],al
000016AA  0000              add [bx+si],al
000016AC  0000              add [bx+si],al
000016AE  0000              add [bx+si],al
000016B0  0000              add [bx+si],al
000016B2  0000              add [bx+si],al
000016B4  0000              add [bx+si],al
000016B6  0000              add [bx+si],al
000016B8  0000              add [bx+si],al
000016BA  0000              add [bx+si],al
000016BC  0000              add [bx+si],al
000016BE  0000              add [bx+si],al
000016C0  0000              add [bx+si],al
000016C2  0000              add [bx+si],al
000016C4  0000              add [bx+si],al
000016C6  0000              add [bx+si],al
000016C8  0000              add [bx+si],al
000016CA  0000              add [bx+si],al
000016CC  0000              add [bx+si],al
000016CE  0000              add [bx+si],al
000016D0  0000              add [bx+si],al
000016D2  0000              add [bx+si],al
000016D4  0000              add [bx+si],al
000016D6  0000              add [bx+si],al
000016D8  0000              add [bx+si],al
000016DA  0000              add [bx+si],al
000016DC  0000              add [bx+si],al
000016DE  0000              add [bx+si],al
000016E0  0000              add [bx+si],al
000016E2  0000              add [bx+si],al
000016E4  0000              add [bx+si],al
000016E6  0000              add [bx+si],al
000016E8  0000              add [bx+si],al
000016EA  0000              add [bx+si],al
000016EC  0000              add [bx+si],al
000016EE  0000              add [bx+si],al
000016F0  0000              add [bx+si],al
000016F2  0000              add [bx+si],al
000016F4  0000              add [bx+si],al
000016F6  0000              add [bx+si],al
000016F8  0000              add [bx+si],al
000016FA  0000              add [bx+si],al
000016FC  0000              add [bx+si],al
000016FE  0000              add [bx+si],al
00001700  0000              add [bx+si],al
00001702  0000              add [bx+si],al
00001704  0000              add [bx+si],al
00001706  0000              add [bx+si],al
00001708  0000              add [bx+si],al
0000170A  0000              add [bx+si],al
0000170C  0000              add [bx+si],al
0000170E  0000              add [bx+si],al
00001710  0000              add [bx+si],al
00001712  0000              add [bx+si],al
00001714  0000              add [bx+si],al
00001716  0000              add [bx+si],al
00001718  0000              add [bx+si],al
0000171A  0000              add [bx+si],al
0000171C  0000              add [bx+si],al
0000171E  0000              add [bx+si],al
00001720  0000              add [bx+si],al
00001722  0000              add [bx+si],al
00001724  0000              add [bx+si],al
00001726  0000              add [bx+si],al
00001728  0000              add [bx+si],al
0000172A  0000              add [bx+si],al
0000172C  0000              add [bx+si],al
0000172E  0000              add [bx+si],al
00001730  0000              add [bx+si],al
00001732  0000              add [bx+si],al
00001734  0000              add [bx+si],al
00001736  0000              add [bx+si],al
00001738  0000              add [bx+si],al
0000173A  0000              add [bx+si],al
0000173C  0000              add [bx+si],al
0000173E  0000              add [bx+si],al
00001740  0000              add [bx+si],al
00001742  0000              add [bx+si],al
00001744  0000              add [bx+si],al
00001746  0000              add [bx+si],al
00001748  0000              add [bx+si],al
0000174A  0000              add [bx+si],al
0000174C  0000              add [bx+si],al
0000174E  0000              add [bx+si],al
00001750  0000              add [bx+si],al
00001752  0000              add [bx+si],al
00001754  0000              add [bx+si],al
00001756  0000              add [bx+si],al
00001758  0000              add [bx+si],al
0000175A  0000              add [bx+si],al
0000175C  0000              add [bx+si],al
0000175E  0000              add [bx+si],al
00001760  0000              add [bx+si],al
00001762  0000              add [bx+si],al
00001764  0000              add [bx+si],al
00001766  0000              add [bx+si],al
00001768  0000              add [bx+si],al
0000176A  0000              add [bx+si],al
0000176C  0000              add [bx+si],al
0000176E  0000              add [bx+si],al
00001770  0000              add [bx+si],al
00001772  0000              add [bx+si],al
00001774  0000              add [bx+si],al
00001776  0000              add [bx+si],al
00001778  0000              add [bx+si],al
0000177A  0000              add [bx+si],al
0000177C  0000              add [bx+si],al
0000177E  0000              add [bx+si],al
00001780  0000              add [bx+si],al
00001782  0000              add [bx+si],al
00001784  0000              add [bx+si],al
00001786  0000              add [bx+si],al
00001788  0000              add [bx+si],al
0000178A  0000              add [bx+si],al
0000178C  0000              add [bx+si],al
0000178E  0000              add [bx+si],al
00001790  0000              add [bx+si],al
00001792  0000              add [bx+si],al
00001794  0000              add [bx+si],al
00001796  0000              add [bx+si],al
00001798  0000              add [bx+si],al
0000179A  0000              add [bx+si],al
0000179C  0000              add [bx+si],al
0000179E  0000              add [bx+si],al
000017A0  0000              add [bx+si],al
000017A2  0000              add [bx+si],al
000017A4  0000              add [bx+si],al
000017A6  0000              add [bx+si],al
000017A8  0000              add [bx+si],al
000017AA  0000              add [bx+si],al
000017AC  0000              add [bx+si],al
000017AE  0000              add [bx+si],al
000017B0  0000              add [bx+si],al
000017B2  0000              add [bx+si],al
000017B4  0000              add [bx+si],al
000017B6  0000              add [bx+si],al
000017B8  0000              add [bx+si],al
000017BA  0000              add [bx+si],al
000017BC  0000              add [bx+si],al
000017BE  0000              add [bx+si],al
000017C0  0000              add [bx+si],al
000017C2  0000              add [bx+si],al
000017C4  0000              add [bx+si],al
000017C6  0000              add [bx+si],al
000017C8  0000              add [bx+si],al
000017CA  0000              add [bx+si],al
000017CC  0000              add [bx+si],al
000017CE  0000              add [bx+si],al
000017D0  0000              add [bx+si],al
000017D2  0000              add [bx+si],al
000017D4  0000              add [bx+si],al
000017D6  0000              add [bx+si],al
000017D8  0000              add [bx+si],al
000017DA  0000              add [bx+si],al
000017DC  0000              add [bx+si],al
000017DE  0000              add [bx+si],al
000017E0  0000              add [bx+si],al
000017E2  0000              add [bx+si],al
000017E4  0000              add [bx+si],al
000017E6  0000              add [bx+si],al
000017E8  0000              add [bx+si],al
000017EA  0000              add [bx+si],al
000017EC  0000              add [bx+si],al
000017EE  0000              add [bx+si],al
000017F0  0000              add [bx+si],al
000017F2  0000              add [bx+si],al
000017F4  0000              add [bx+si],al
000017F6  0000              add [bx+si],al
000017F8  0000              add [bx+si],al
000017FA  0000              add [bx+si],al
000017FC  0000              add [bx+si],al
000017FE  0000              add [bx+si],al
00001800  0000              add [bx+si],al
00001802  0000              add [bx+si],al
00001804  0000              add [bx+si],al
00001806  0000              add [bx+si],al
00001808  0000              add [bx+si],al
0000180A  0000              add [bx+si],al
0000180C  0000              add [bx+si],al
0000180E  0000              add [bx+si],al
00001810  0000              add [bx+si],al
00001812  0000              add [bx+si],al
00001814  0000              add [bx+si],al
00001816  0000              add [bx+si],al
00001818  0000              add [bx+si],al
0000181A  0000              add [bx+si],al
0000181C  0000              add [bx+si],al
0000181E  0000              add [bx+si],al
00001820  0000              add [bx+si],al
00001822  0000              add [bx+si],al
00001824  0000              add [bx+si],al
00001826  0000              add [bx+si],al
00001828  0000              add [bx+si],al
0000182A  0000              add [bx+si],al
0000182C  0000              add [bx+si],al
0000182E  0000              add [bx+si],al
00001830  0000              add [bx+si],al
00001832  0000              add [bx+si],al
00001834  0000              add [bx+si],al
00001836  0000              add [bx+si],al
00001838  0000              add [bx+si],al
0000183A  0000              add [bx+si],al
0000183C  0000              add [bx+si],al
0000183E  0000              add [bx+si],al
00001840  0000              add [bx+si],al
00001842  0000              add [bx+si],al
00001844  0000              add [bx+si],al
00001846  0000              add [bx+si],al
00001848  0000              add [bx+si],al
0000184A  0000              add [bx+si],al
0000184C  0000              add [bx+si],al
0000184E  0000              add [bx+si],al
00001850  0000              add [bx+si],al
00001852  0000              add [bx+si],al
00001854  0000              add [bx+si],al
00001856  0000              add [bx+si],al
00001858  0000              add [bx+si],al
0000185A  0000              add [bx+si],al
0000185C  0000              add [bx+si],al
0000185E  0000              add [bx+si],al
00001860  0000              add [bx+si],al
00001862  0000              add [bx+si],al
00001864  0000              add [bx+si],al
00001866  0000              add [bx+si],al
00001868  0000              add [bx+si],al
0000186A  0000              add [bx+si],al
0000186C  0000              add [bx+si],al
0000186E  0000              add [bx+si],al
00001870  0000              add [bx+si],al
00001872  0000              add [bx+si],al
00001874  0000              add [bx+si],al
00001876  0000              add [bx+si],al
00001878  0000              add [bx+si],al
0000187A  0000              add [bx+si],al
0000187C  0000              add [bx+si],al
0000187E  0000              add [bx+si],al
00001880  0000              add [bx+si],al
00001882  0000              add [bx+si],al
00001884  0000              add [bx+si],al
00001886  0000              add [bx+si],al
00001888  0000              add [bx+si],al
0000188A  0000              add [bx+si],al
0000188C  0000              add [bx+si],al
0000188E  0000              add [bx+si],al
00001890  0000              add [bx+si],al
00001892  0000              add [bx+si],al
00001894  0000              add [bx+si],al
00001896  0000              add [bx+si],al
00001898  0000              add [bx+si],al
0000189A  0000              add [bx+si],al
0000189C  0000              add [bx+si],al
0000189E  0000              add [bx+si],al
000018A0  0000              add [bx+si],al
000018A2  0000              add [bx+si],al
000018A4  0000              add [bx+si],al
000018A6  0000              add [bx+si],al
000018A8  0000              add [bx+si],al
000018AA  0000              add [bx+si],al
000018AC  0000              add [bx+si],al
000018AE  0000              add [bx+si],al
000018B0  0000              add [bx+si],al
000018B2  0000              add [bx+si],al
000018B4  0000              add [bx+si],al
000018B6  0000              add [bx+si],al
000018B8  0000              add [bx+si],al
000018BA  0000              add [bx+si],al
000018BC  0000              add [bx+si],al
000018BE  0000              add [bx+si],al
000018C0  0000              add [bx+si],al
000018C2  0000              add [bx+si],al
000018C4  0000              add [bx+si],al
000018C6  0000              add [bx+si],al
000018C8  0000              add [bx+si],al
000018CA  0000              add [bx+si],al
000018CC  0000              add [bx+si],al
000018CE  0000              add [bx+si],al
000018D0  0000              add [bx+si],al
000018D2  0000              add [bx+si],al
000018D4  0000              add [bx+si],al
000018D6  0000              add [bx+si],al
000018D8  0000              add [bx+si],al
000018DA  0000              add [bx+si],al
000018DC  0000              add [bx+si],al
000018DE  0000              add [bx+si],al
000018E0  0000              add [bx+si],al
000018E2  0000              add [bx+si],al
000018E4  0000              add [bx+si],al
000018E6  0000              add [bx+si],al
000018E8  0000              add [bx+si],al
000018EA  0000              add [bx+si],al
000018EC  0000              add [bx+si],al
000018EE  0000              add [bx+si],al
000018F0  0000              add [bx+si],al
000018F2  0000              add [bx+si],al
000018F4  0000              add [bx+si],al
000018F6  0000              add [bx+si],al
000018F8  0000              add [bx+si],al
000018FA  0000              add [bx+si],al
000018FC  0000              add [bx+si],al
000018FE  0000              add [bx+si],al
00001900  0000              add [bx+si],al
00001902  0000              add [bx+si],al
00001904  0000              add [bx+si],al
00001906  0000              add [bx+si],al
00001908  0000              add [bx+si],al
0000190A  0000              add [bx+si],al
0000190C  0000              add [bx+si],al
0000190E  0000              add [bx+si],al
00001910  0000              add [bx+si],al
00001912  0000              add [bx+si],al
00001914  0000              add [bx+si],al
00001916  0000              add [bx+si],al
00001918  0000              add [bx+si],al
0000191A  0000              add [bx+si],al
0000191C  0000              add [bx+si],al
0000191E  0000              add [bx+si],al
00001920  0000              add [bx+si],al
00001922  0000              add [bx+si],al
00001924  0000              add [bx+si],al
00001926  0000              add [bx+si],al
00001928  0000              add [bx+si],al
0000192A  0000              add [bx+si],al
0000192C  0000              add [bx+si],al
0000192E  0000              add [bx+si],al
00001930  0000              add [bx+si],al
00001932  0000              add [bx+si],al
00001934  0000              add [bx+si],al
00001936  0000              add [bx+si],al
00001938  0000              add [bx+si],al
0000193A  0000              add [bx+si],al
0000193C  0000              add [bx+si],al
0000193E  0000              add [bx+si],al
00001940  0000              add [bx+si],al
00001942  0000              add [bx+si],al
00001944  0000              add [bx+si],al
00001946  0000              add [bx+si],al
00001948  0000              add [bx+si],al
0000194A  0000              add [bx+si],al
0000194C  0000              add [bx+si],al
0000194E  0000              add [bx+si],al
00001950  0000              add [bx+si],al
00001952  0000              add [bx+si],al
00001954  0000              add [bx+si],al
00001956  0000              add [bx+si],al
00001958  0000              add [bx+si],al
0000195A  0000              add [bx+si],al
0000195C  0000              add [bx+si],al
0000195E  0000              add [bx+si],al
00001960  0000              add [bx+si],al
00001962  0000              add [bx+si],al
00001964  0000              add [bx+si],al
00001966  0000              add [bx+si],al
00001968  0000              add [bx+si],al
0000196A  0000              add [bx+si],al
0000196C  0000              add [bx+si],al
0000196E  0000              add [bx+si],al
00001970  0000              add [bx+si],al
00001972  0000              add [bx+si],al
00001974  0000              add [bx+si],al
00001976  0000              add [bx+si],al
00001978  0000              add [bx+si],al
0000197A  0000              add [bx+si],al
0000197C  0000              add [bx+si],al
0000197E  0000              add [bx+si],al
00001980  0000              add [bx+si],al
00001982  0000              add [bx+si],al
00001984  0000              add [bx+si],al
00001986  0000              add [bx+si],al
00001988  0000              add [bx+si],al
0000198A  0000              add [bx+si],al
0000198C  0000              add [bx+si],al
0000198E  0000              add [bx+si],al
00001990  0000              add [bx+si],al
00001992  0000              add [bx+si],al
00001994  0000              add [bx+si],al
00001996  0000              add [bx+si],al
00001998  0000              add [bx+si],al
0000199A  0000              add [bx+si],al
0000199C  0000              add [bx+si],al
0000199E  0000              add [bx+si],al
000019A0  0000              add [bx+si],al
000019A2  0000              add [bx+si],al
000019A4  0000              add [bx+si],al
000019A6  0000              add [bx+si],al
000019A8  0000              add [bx+si],al
000019AA  0000              add [bx+si],al
000019AC  0000              add [bx+si],al
000019AE  0000              add [bx+si],al
000019B0  0000              add [bx+si],al
000019B2  0000              add [bx+si],al
000019B4  0000              add [bx+si],al
000019B6  0000              add [bx+si],al
000019B8  0000              add [bx+si],al
000019BA  0000              add [bx+si],al
000019BC  0000              add [bx+si],al
000019BE  0000              add [bx+si],al
000019C0  0000              add [bx+si],al
000019C2  0000              add [bx+si],al
000019C4  0000              add [bx+si],al
000019C6  0000              add [bx+si],al
000019C8  0000              add [bx+si],al
000019CA  0000              add [bx+si],al
000019CC  0000              add [bx+si],al
000019CE  0000              add [bx+si],al
000019D0  0000              add [bx+si],al
000019D2  0000              add [bx+si],al
000019D4  0000              add [bx+si],al
000019D6  0000              add [bx+si],al
000019D8  0000              add [bx+si],al
000019DA  0000              add [bx+si],al
000019DC  0000              add [bx+si],al
000019DE  0000              add [bx+si],al
000019E0  0000              add [bx+si],al
000019E2  0000              add [bx+si],al
000019E4  0000              add [bx+si],al
000019E6  0000              add [bx+si],al
000019E8  0000              add [bx+si],al
000019EA  0000              add [bx+si],al
000019EC  0000              add [bx+si],al
000019EE  0000              add [bx+si],al
000019F0  0000              add [bx+si],al
000019F2  0000              add [bx+si],al
000019F4  0000              add [bx+si],al
000019F6  0000              add [bx+si],al
000019F8  0000              add [bx+si],al
000019FA  0000              add [bx+si],al
000019FC  0000              add [bx+si],al
000019FE  0000              add [bx+si],al
00001A00  0000              add [bx+si],al
00001A02  0000              add [bx+si],al
00001A04  0000              add [bx+si],al
00001A06  0000              add [bx+si],al
00001A08  0000              add [bx+si],al
00001A0A  0000              add [bx+si],al
00001A0C  0000              add [bx+si],al
00001A0E  0000              add [bx+si],al
00001A10  0000              add [bx+si],al
00001A12  0000              add [bx+si],al
00001A14  0000              add [bx+si],al
00001A16  0000              add [bx+si],al
00001A18  0000              add [bx+si],al
00001A1A  0000              add [bx+si],al
00001A1C  0000              add [bx+si],al
00001A1E  0000              add [bx+si],al
00001A20  0000              add [bx+si],al
00001A22  0000              add [bx+si],al
00001A24  0000              add [bx+si],al
00001A26  0000              add [bx+si],al
00001A28  0000              add [bx+si],al
00001A2A  0000              add [bx+si],al
00001A2C  0000              add [bx+si],al
00001A2E  0000              add [bx+si],al
00001A30  0000              add [bx+si],al
00001A32  0000              add [bx+si],al
00001A34  0000              add [bx+si],al
00001A36  0000              add [bx+si],al
00001A38  0000              add [bx+si],al
00001A3A  0000              add [bx+si],al
00001A3C  0000              add [bx+si],al
00001A3E  0000              add [bx+si],al
00001A40  0000              add [bx+si],al
00001A42  0000              add [bx+si],al
00001A44  0000              add [bx+si],al
00001A46  0000              add [bx+si],al
00001A48  0000              add [bx+si],al
00001A4A  0000              add [bx+si],al
00001A4C  0000              add [bx+si],al
00001A4E  0000              add [bx+si],al
00001A50  0000              add [bx+si],al
00001A52  0000              add [bx+si],al
00001A54  0000              add [bx+si],al
00001A56  0000              add [bx+si],al
00001A58  0000              add [bx+si],al
00001A5A  0000              add [bx+si],al
00001A5C  0000              add [bx+si],al
00001A5E  0000              add [bx+si],al
00001A60  0000              add [bx+si],al
00001A62  0000              add [bx+si],al
00001A64  0000              add [bx+si],al
00001A66  0000              add [bx+si],al
00001A68  0000              add [bx+si],al
00001A6A  0000              add [bx+si],al
00001A6C  0000              add [bx+si],al
00001A6E  0000              add [bx+si],al
00001A70  0000              add [bx+si],al
00001A72  0000              add [bx+si],al
00001A74  0000              add [bx+si],al
00001A76  0000              add [bx+si],al
00001A78  0000              add [bx+si],al
00001A7A  0000              add [bx+si],al
00001A7C  0000              add [bx+si],al
00001A7E  0000              add [bx+si],al
00001A80  0000              add [bx+si],al
00001A82  0000              add [bx+si],al
00001A84  0000              add [bx+si],al
00001A86  0000              add [bx+si],al
00001A88  0000              add [bx+si],al
00001A8A  0000              add [bx+si],al
00001A8C  0000              add [bx+si],al
00001A8E  0000              add [bx+si],al
00001A90  0000              add [bx+si],al
00001A92  0000              add [bx+si],al
00001A94  0000              add [bx+si],al
00001A96  0000              add [bx+si],al
00001A98  0000              add [bx+si],al
00001A9A  0000              add [bx+si],al
00001A9C  0000              add [bx+si],al
00001A9E  0000              add [bx+si],al
00001AA0  0000              add [bx+si],al
00001AA2  0000              add [bx+si],al
00001AA4  0000              add [bx+si],al
00001AA6  0000              add [bx+si],al
00001AA8  0000              add [bx+si],al
00001AAA  0000              add [bx+si],al
00001AAC  0000              add [bx+si],al
00001AAE  0000              add [bx+si],al
00001AB0  0000              add [bx+si],al
00001AB2  0000              add [bx+si],al
00001AB4  0000              add [bx+si],al
00001AB6  0000              add [bx+si],al
00001AB8  0000              add [bx+si],al
00001ABA  0000              add [bx+si],al
00001ABC  0000              add [bx+si],al
00001ABE  0000              add [bx+si],al
00001AC0  0000              add [bx+si],al
00001AC2  0000              add [bx+si],al
00001AC4  0000              add [bx+si],al
00001AC6  0000              add [bx+si],al
00001AC8  0000              add [bx+si],al
00001ACA  0000              add [bx+si],al
00001ACC  0000              add [bx+si],al
00001ACE  0000              add [bx+si],al
00001AD0  0000              add [bx+si],al
00001AD2  0000              add [bx+si],al
00001AD4  0000              add [bx+si],al
00001AD6  0000              add [bx+si],al
00001AD8  0000              add [bx+si],al
00001ADA  0000              add [bx+si],al
00001ADC  0000              add [bx+si],al
00001ADE  0000              add [bx+si],al
00001AE0  0000              add [bx+si],al
00001AE2  0000              add [bx+si],al
00001AE4  0000              add [bx+si],al
00001AE6  0000              add [bx+si],al
00001AE8  0000              add [bx+si],al
00001AEA  0000              add [bx+si],al
00001AEC  0000              add [bx+si],al
00001AEE  0000              add [bx+si],al
00001AF0  0000              add [bx+si],al
00001AF2  0000              add [bx+si],al
00001AF4  0000              add [bx+si],al
00001AF6  0000              add [bx+si],al
00001AF8  0000              add [bx+si],al
00001AFA  0000              add [bx+si],al
00001AFC  0000              add [bx+si],al
00001AFE  0000              add [bx+si],al
00001B00  0000              add [bx+si],al
00001B02  0000              add [bx+si],al
00001B04  0000              add [bx+si],al
00001B06  0000              add [bx+si],al
00001B08  0000              add [bx+si],al
00001B0A  0000              add [bx+si],al
00001B0C  0000              add [bx+si],al
00001B0E  0000              add [bx+si],al
00001B10  0000              add [bx+si],al
00001B12  0000              add [bx+si],al
00001B14  0000              add [bx+si],al
00001B16  0000              add [bx+si],al
00001B18  0000              add [bx+si],al
00001B1A  0000              add [bx+si],al
00001B1C  0000              add [bx+si],al
00001B1E  0000              add [bx+si],al
00001B20  0000              add [bx+si],al
00001B22  0000              add [bx+si],al
00001B24  0000              add [bx+si],al
00001B26  0000              add [bx+si],al
00001B28  0000              add [bx+si],al
00001B2A  0000              add [bx+si],al
00001B2C  0000              add [bx+si],al
00001B2E  0000              add [bx+si],al
00001B30  0000              add [bx+si],al
00001B32  0000              add [bx+si],al
00001B34  0000              add [bx+si],al
00001B36  0000              add [bx+si],al
00001B38  0000              add [bx+si],al
00001B3A  0000              add [bx+si],al
00001B3C  0000              add [bx+si],al
00001B3E  0000              add [bx+si],al
00001B40  0000              add [bx+si],al
00001B42  0000              add [bx+si],al
00001B44  0000              add [bx+si],al
00001B46  0000              add [bx+si],al
00001B48  0000              add [bx+si],al
00001B4A  0000              add [bx+si],al
00001B4C  0000              add [bx+si],al
00001B4E  0000              add [bx+si],al
00001B50  0000              add [bx+si],al
00001B52  0000              add [bx+si],al
00001B54  0000              add [bx+si],al
00001B56  0000              add [bx+si],al
00001B58  0000              add [bx+si],al
00001B5A  0000              add [bx+si],al
00001B5C  0000              add [bx+si],al
00001B5E  0000              add [bx+si],al
00001B60  0000              add [bx+si],al
00001B62  0000              add [bx+si],al
00001B64  0000              add [bx+si],al
00001B66  0000              add [bx+si],al
00001B68  0000              add [bx+si],al
00001B6A  0000              add [bx+si],al
00001B6C  0000              add [bx+si],al
00001B6E  0000              add [bx+si],al
00001B70  0000              add [bx+si],al
00001B72  0000              add [bx+si],al
00001B74  0000              add [bx+si],al
00001B76  0000              add [bx+si],al
00001B78  0000              add [bx+si],al
00001B7A  0000              add [bx+si],al
00001B7C  0000              add [bx+si],al
00001B7E  0000              add [bx+si],al
00001B80  0000              add [bx+si],al
00001B82  0000              add [bx+si],al
00001B84  0000              add [bx+si],al
00001B86  0000              add [bx+si],al
00001B88  0000              add [bx+si],al
00001B8A  0000              add [bx+si],al
00001B8C  0000              add [bx+si],al
00001B8E  0000              add [bx+si],al
00001B90  0000              add [bx+si],al
00001B92  0000              add [bx+si],al
00001B94  0000              add [bx+si],al
00001B96  0000              add [bx+si],al
00001B98  0000              add [bx+si],al
00001B9A  0000              add [bx+si],al
00001B9C  0000              add [bx+si],al
00001B9E  0000              add [bx+si],al
00001BA0  0000              add [bx+si],al
00001BA2  0000              add [bx+si],al
00001BA4  0000              add [bx+si],al
00001BA6  0000              add [bx+si],al
00001BA8  0000              add [bx+si],al
00001BAA  0000              add [bx+si],al
00001BAC  0000              add [bx+si],al
00001BAE  0000              add [bx+si],al
00001BB0  0000              add [bx+si],al
00001BB2  0000              add [bx+si],al
00001BB4  0000              add [bx+si],al
00001BB6  0000              add [bx+si],al
00001BB8  0000              add [bx+si],al
00001BBA  0000              add [bx+si],al
00001BBC  0000              add [bx+si],al
00001BBE  0000              add [bx+si],al
00001BC0  0000              add [bx+si],al
00001BC2  0000              add [bx+si],al
00001BC4  0000              add [bx+si],al
00001BC6  0000              add [bx+si],al
00001BC8  0000              add [bx+si],al
00001BCA  0000              add [bx+si],al
00001BCC  0000              add [bx+si],al
00001BCE  0000              add [bx+si],al
00001BD0  0000              add [bx+si],al
00001BD2  0000              add [bx+si],al
00001BD4  0000              add [bx+si],al
00001BD6  0000              add [bx+si],al
00001BD8  0000              add [bx+si],al
00001BDA  0000              add [bx+si],al
00001BDC  0000              add [bx+si],al
00001BDE  0000              add [bx+si],al
00001BE0  0000              add [bx+si],al
00001BE2  0000              add [bx+si],al
00001BE4  0000              add [bx+si],al
00001BE6  0000              add [bx+si],al
00001BE8  0000              add [bx+si],al
00001BEA  0000              add [bx+si],al
00001BEC  0000              add [bx+si],al
00001BEE  0000              add [bx+si],al
00001BF0  0000              add [bx+si],al
00001BF2  0000              add [bx+si],al
00001BF4  0000              add [bx+si],al
00001BF6  0000              add [bx+si],al
00001BF8  0000              add [bx+si],al
00001BFA  0000              add [bx+si],al
00001BFC  0000              add [bx+si],al
00001BFE  0000              add [bx+si],al
00001C00  0000              add [bx+si],al
00001C02  0000              add [bx+si],al
00001C04  0000              add [bx+si],al
00001C06  0000              add [bx+si],al
00001C08  0000              add [bx+si],al
00001C0A  0000              add [bx+si],al
00001C0C  0000              add [bx+si],al
00001C0E  0000              add [bx+si],al
00001C10  0000              add [bx+si],al
00001C12  0000              add [bx+si],al
00001C14  0000              add [bx+si],al
00001C16  0000              add [bx+si],al
00001C18  0000              add [bx+si],al
00001C1A  0000              add [bx+si],al
00001C1C  0000              add [bx+si],al
00001C1E  0000              add [bx+si],al
00001C20  0000              add [bx+si],al
00001C22  0000              add [bx+si],al
00001C24  0000              add [bx+si],al
00001C26  0000              add [bx+si],al
00001C28  0000              add [bx+si],al
00001C2A  0000              add [bx+si],al
00001C2C  0000              add [bx+si],al
00001C2E  0000              add [bx+si],al
00001C30  0000              add [bx+si],al
00001C32  0000              add [bx+si],al
00001C34  0000              add [bx+si],al
00001C36  0000              add [bx+si],al
00001C38  0000              add [bx+si],al
00001C3A  0000              add [bx+si],al
00001C3C  0000              add [bx+si],al
00001C3E  0000              add [bx+si],al
00001C40  0000              add [bx+si],al
00001C42  0000              add [bx+si],al
00001C44  0000              add [bx+si],al
00001C46  0000              add [bx+si],al
00001C48  0000              add [bx+si],al
00001C4A  0000              add [bx+si],al
00001C4C  0000              add [bx+si],al
00001C4E  0000              add [bx+si],al
00001C50  0000              add [bx+si],al
00001C52  0000              add [bx+si],al
00001C54  0000              add [bx+si],al
00001C56  0000              add [bx+si],al
00001C58  0000              add [bx+si],al
00001C5A  0000              add [bx+si],al
00001C5C  0000              add [bx+si],al
00001C5E  0000              add [bx+si],al
00001C60  0000              add [bx+si],al
00001C62  0000              add [bx+si],al
00001C64  0000              add [bx+si],al
00001C66  0000              add [bx+si],al
00001C68  0000              add [bx+si],al
00001C6A  0000              add [bx+si],al
00001C6C  0000              add [bx+si],al
00001C6E  0000              add [bx+si],al
00001C70  0000              add [bx+si],al
00001C72  0000              add [bx+si],al
00001C74  0000              add [bx+si],al
00001C76  0000              add [bx+si],al
00001C78  0000              add [bx+si],al
00001C7A  0000              add [bx+si],al
00001C7C  0000              add [bx+si],al
00001C7E  0000              add [bx+si],al
00001C80  0000              add [bx+si],al
00001C82  0000              add [bx+si],al
00001C84  0000              add [bx+si],al
00001C86  0000              add [bx+si],al
00001C88  0000              add [bx+si],al
00001C8A  0000              add [bx+si],al
00001C8C  0000              add [bx+si],al
00001C8E  0000              add [bx+si],al
00001C90  0000              add [bx+si],al
00001C92  0000              add [bx+si],al
00001C94  0000              add [bx+si],al
00001C96  0000              add [bx+si],al
00001C98  0000              add [bx+si],al
00001C9A  0000              add [bx+si],al
00001C9C  0000              add [bx+si],al
00001C9E  0000              add [bx+si],al
00001CA0  0000              add [bx+si],al
00001CA2  0000              add [bx+si],al
00001CA4  0000              add [bx+si],al
00001CA6  0000              add [bx+si],al
00001CA8  0000              add [bx+si],al
00001CAA  0000              add [bx+si],al
00001CAC  0000              add [bx+si],al
00001CAE  0000              add [bx+si],al
00001CB0  0000              add [bx+si],al
00001CB2  0000              add [bx+si],al
00001CB4  0000              add [bx+si],al
00001CB6  0000              add [bx+si],al
00001CB8  0000              add [bx+si],al
00001CBA  0000              add [bx+si],al
00001CBC  0000              add [bx+si],al
00001CBE  0000              add [bx+si],al
00001CC0  0000              add [bx+si],al
00001CC2  0000              add [bx+si],al
00001CC4  0000              add [bx+si],al
00001CC6  0000              add [bx+si],al
00001CC8  0000              add [bx+si],al
00001CCA  0000              add [bx+si],al
00001CCC  0000              add [bx+si],al
00001CCE  0000              add [bx+si],al
00001CD0  0000              add [bx+si],al
00001CD2  0000              add [bx+si],al
00001CD4  0000              add [bx+si],al
00001CD6  0000              add [bx+si],al
00001CD8  0000              add [bx+si],al
00001CDA  0000              add [bx+si],al
00001CDC  0000              add [bx+si],al
00001CDE  0000              add [bx+si],al
00001CE0  0000              add [bx+si],al
00001CE2  0000              add [bx+si],al
00001CE4  0000              add [bx+si],al
00001CE6  0000              add [bx+si],al
00001CE8  0000              add [bx+si],al
00001CEA  0000              add [bx+si],al
00001CEC  0000              add [bx+si],al
00001CEE  0000              add [bx+si],al
00001CF0  0000              add [bx+si],al
00001CF2  0000              add [bx+si],al
00001CF4  0000              add [bx+si],al
00001CF6  0000              add [bx+si],al
00001CF8  0000              add [bx+si],al
00001CFA  0000              add [bx+si],al
00001CFC  0000              add [bx+si],al
00001CFE  0000              add [bx+si],al
00001D00  0000              add [bx+si],al
00001D02  0000              add [bx+si],al
00001D04  0000              add [bx+si],al
00001D06  0000              add [bx+si],al
00001D08  0000              add [bx+si],al
00001D0A  0000              add [bx+si],al
00001D0C  0000              add [bx+si],al
00001D0E  0000              add [bx+si],al
00001D10  0000              add [bx+si],al
00001D12  0000              add [bx+si],al
00001D14  0000              add [bx+si],al
00001D16  0000              add [bx+si],al
00001D18  0000              add [bx+si],al
00001D1A  0000              add [bx+si],al
00001D1C  0000              add [bx+si],al
00001D1E  0000              add [bx+si],al
00001D20  0000              add [bx+si],al
00001D22  0000              add [bx+si],al
00001D24  0000              add [bx+si],al
00001D26  0000              add [bx+si],al
00001D28  0000              add [bx+si],al
00001D2A  0000              add [bx+si],al
00001D2C  0000              add [bx+si],al
00001D2E  0000              add [bx+si],al
00001D30  0000              add [bx+si],al
00001D32  0000              add [bx+si],al
00001D34  0000              add [bx+si],al
00001D36  0000              add [bx+si],al
00001D38  0000              add [bx+si],al
00001D3A  0000              add [bx+si],al
00001D3C  0000              add [bx+si],al
00001D3E  0000              add [bx+si],al
00001D40  0000              add [bx+si],al
00001D42  0000              add [bx+si],al
00001D44  0000              add [bx+si],al
00001D46  0000              add [bx+si],al
00001D48  0000              add [bx+si],al
00001D4A  0000              add [bx+si],al
00001D4C  0000              add [bx+si],al
00001D4E  0000              add [bx+si],al
00001D50  0000              add [bx+si],al
00001D52  0000              add [bx+si],al
00001D54  0000              add [bx+si],al
00001D56  0000              add [bx+si],al
00001D58  0000              add [bx+si],al
00001D5A  0000              add [bx+si],al
00001D5C  0000              add [bx+si],al
00001D5E  0000              add [bx+si],al
00001D60  0000              add [bx+si],al
00001D62  0000              add [bx+si],al
00001D64  0000              add [bx+si],al
00001D66  0000              add [bx+si],al
00001D68  0000              add [bx+si],al
00001D6A  0000              add [bx+si],al
00001D6C  0000              add [bx+si],al
00001D6E  0000              add [bx+si],al
00001D70  0000              add [bx+si],al
00001D72  0000              add [bx+si],al
00001D74  0000              add [bx+si],al
00001D76  0000              add [bx+si],al
00001D78  0000              add [bx+si],al
00001D7A  0000              add [bx+si],al
00001D7C  0000              add [bx+si],al
00001D7E  0000              add [bx+si],al
00001D80  0000              add [bx+si],al
00001D82  0000              add [bx+si],al
00001D84  0000              add [bx+si],al
00001D86  0000              add [bx+si],al
00001D88  0000              add [bx+si],al
00001D8A  0000              add [bx+si],al
00001D8C  0000              add [bx+si],al
00001D8E  0000              add [bx+si],al
00001D90  0000              add [bx+si],al
00001D92  0000              add [bx+si],al
00001D94  0000              add [bx+si],al
00001D96  0000              add [bx+si],al
00001D98  0000              add [bx+si],al
00001D9A  0000              add [bx+si],al
00001D9C  0000              add [bx+si],al
00001D9E  0000              add [bx+si],al
00001DA0  0000              add [bx+si],al
00001DA2  0000              add [bx+si],al
00001DA4  0000              add [bx+si],al
00001DA6  0000              add [bx+si],al
00001DA8  0000              add [bx+si],al
00001DAA  0000              add [bx+si],al
00001DAC  0000              add [bx+si],al
00001DAE  0000              add [bx+si],al
00001DB0  0000              add [bx+si],al
00001DB2  0000              add [bx+si],al
00001DB4  0000              add [bx+si],al
00001DB6  0000              add [bx+si],al
00001DB8  0000              add [bx+si],al
00001DBA  0000              add [bx+si],al
00001DBC  0000              add [bx+si],al
00001DBE  0000              add [bx+si],al
00001DC0  0000              add [bx+si],al
00001DC2  0000              add [bx+si],al
00001DC4  0000              add [bx+si],al
00001DC6  0000              add [bx+si],al
00001DC8  0000              add [bx+si],al
00001DCA  0000              add [bx+si],al
00001DCC  0000              add [bx+si],al
00001DCE  0000              add [bx+si],al
00001DD0  0000              add [bx+si],al
00001DD2  0000              add [bx+si],al
00001DD4  0000              add [bx+si],al
00001DD6  0000              add [bx+si],al
00001DD8  0000              add [bx+si],al
00001DDA  0000              add [bx+si],al
00001DDC  0000              add [bx+si],al
00001DDE  0000              add [bx+si],al
00001DE0  0000              add [bx+si],al
00001DE2  0000              add [bx+si],al
00001DE4  0000              add [bx+si],al
00001DE6  0000              add [bx+si],al
00001DE8  0000              add [bx+si],al
00001DEA  0000              add [bx+si],al
00001DEC  0000              add [bx+si],al
00001DEE  0000              add [bx+si],al
00001DF0  0000              add [bx+si],al
00001DF2  0000              add [bx+si],al
00001DF4  0000              add [bx+si],al
00001DF6  0000              add [bx+si],al
00001DF8  0000              add [bx+si],al
00001DFA  0000              add [bx+si],al
00001DFC  0000              add [bx+si],al
00001DFE  0000              add [bx+si],al
00001E00  0000              add [bx+si],al
00001E02  0000              add [bx+si],al
00001E04  0000              add [bx+si],al
00001E06  0000              add [bx+si],al
00001E08  0000              add [bx+si],al
00001E0A  0000              add [bx+si],al
00001E0C  0000              add [bx+si],al
00001E0E  0000              add [bx+si],al
00001E10  0000              add [bx+si],al
00001E12  0000              add [bx+si],al
00001E14  0000              add [bx+si],al
00001E16  0000              add [bx+si],al
00001E18  0000              add [bx+si],al
00001E1A  0000              add [bx+si],al
00001E1C  0000              add [bx+si],al
00001E1E  0000              add [bx+si],al
00001E20  0000              add [bx+si],al
00001E22  0000              add [bx+si],al
00001E24  0000              add [bx+si],al
00001E26  0000              add [bx+si],al
00001E28  0000              add [bx+si],al
00001E2A  0000              add [bx+si],al
00001E2C  0000              add [bx+si],al
00001E2E  0000              add [bx+si],al
00001E30  0000              add [bx+si],al
00001E32  0000              add [bx+si],al
00001E34  0000              add [bx+si],al
00001E36  0000              add [bx+si],al
00001E38  0000              add [bx+si],al
00001E3A  0000              add [bx+si],al
00001E3C  0000              add [bx+si],al
00001E3E  0000              add [bx+si],al
00001E40  0000              add [bx+si],al
00001E42  0000              add [bx+si],al
00001E44  0000              add [bx+si],al
00001E46  0000              add [bx+si],al
00001E48  0000              add [bx+si],al
00001E4A  0000              add [bx+si],al
00001E4C  0000              add [bx+si],al
00001E4E  0000              add [bx+si],al
00001E50  0000              add [bx+si],al
00001E52  0000              add [bx+si],al
00001E54  0000              add [bx+si],al
00001E56  0000              add [bx+si],al
00001E58  0000              add [bx+si],al
00001E5A  0000              add [bx+si],al
00001E5C  0000              add [bx+si],al
00001E5E  0000              add [bx+si],al
00001E60  0000              add [bx+si],al
00001E62  0000              add [bx+si],al
00001E64  0000              add [bx+si],al
00001E66  0000              add [bx+si],al
00001E68  0000              add [bx+si],al
00001E6A  0000              add [bx+si],al
00001E6C  0000              add [bx+si],al
00001E6E  0000              add [bx+si],al
00001E70  0000              add [bx+si],al
00001E72  0000              add [bx+si],al
00001E74  0000              add [bx+si],al
00001E76  0000              add [bx+si],al
00001E78  0000              add [bx+si],al
00001E7A  0000              add [bx+si],al
00001E7C  0000              add [bx+si],al
00001E7E  0000              add [bx+si],al
00001E80  0000              add [bx+si],al
00001E82  0000              add [bx+si],al
00001E84  0000              add [bx+si],al
00001E86  0000              add [bx+si],al
00001E88  0000              add [bx+si],al
00001E8A  0000              add [bx+si],al
00001E8C  0000              add [bx+si],al
00001E8E  0000              add [bx+si],al
00001E90  0000              add [bx+si],al
00001E92  0000              add [bx+si],al
00001E94  0000              add [bx+si],al
00001E96  0000              add [bx+si],al
00001E98  0000              add [bx+si],al
00001E9A  0000              add [bx+si],al
00001E9C  0000              add [bx+si],al
00001E9E  0000              add [bx+si],al
00001EA0  0000              add [bx+si],al
00001EA2  0000              add [bx+si],al
00001EA4  0000              add [bx+si],al
00001EA6  0000              add [bx+si],al
00001EA8  0000              add [bx+si],al
00001EAA  0000              add [bx+si],al
00001EAC  0000              add [bx+si],al
00001EAE  0000              add [bx+si],al
00001EB0  0000              add [bx+si],al
00001EB2  0000              add [bx+si],al
00001EB4  0000              add [bx+si],al
00001EB6  0000              add [bx+si],al
00001EB8  0000              add [bx+si],al
00001EBA  0000              add [bx+si],al
00001EBC  0000              add [bx+si],al
00001EBE  0000              add [bx+si],al
00001EC0  0000              add [bx+si],al
00001EC2  0000              add [bx+si],al
00001EC4  0000              add [bx+si],al
00001EC6  0000              add [bx+si],al
00001EC8  0000              add [bx+si],al
00001ECA  0000              add [bx+si],al
00001ECC  0000              add [bx+si],al
00001ECE  0000              add [bx+si],al
00001ED0  0000              add [bx+si],al
00001ED2  0000              add [bx+si],al
00001ED4  0000              add [bx+si],al
00001ED6  0000              add [bx+si],al
00001ED8  0000              add [bx+si],al
00001EDA  0000              add [bx+si],al
00001EDC  0000              add [bx+si],al
00001EDE  0000              add [bx+si],al
00001EE0  0000              add [bx+si],al
00001EE2  0000              add [bx+si],al
00001EE4  0000              add [bx+si],al
00001EE6  0000              add [bx+si],al
00001EE8  0000              add [bx+si],al
00001EEA  0000              add [bx+si],al
00001EEC  0000              add [bx+si],al
00001EEE  0000              add [bx+si],al
00001EF0  0000              add [bx+si],al
00001EF2  0000              add [bx+si],al
00001EF4  0000              add [bx+si],al
00001EF6  0000              add [bx+si],al
00001EF8  0000              add [bx+si],al
00001EFA  0000              add [bx+si],al
00001EFC  0000              add [bx+si],al
00001EFE  0000              add [bx+si],al
00001F00  0000              add [bx+si],al
00001F02  0000              add [bx+si],al
00001F04  0000              add [bx+si],al
00001F06  0000              add [bx+si],al
00001F08  0000              add [bx+si],al
00001F0A  0000              add [bx+si],al
00001F0C  0000              add [bx+si],al
00001F0E  0000              add [bx+si],al
00001F10  0000              add [bx+si],al
00001F12  0000              add [bx+si],al
00001F14  0000              add [bx+si],al
00001F16  0000              add [bx+si],al
00001F18  0000              add [bx+si],al
00001F1A  0000              add [bx+si],al
00001F1C  0000              add [bx+si],al
00001F1E  0000              add [bx+si],al
00001F20  0000              add [bx+si],al
00001F22  0000              add [bx+si],al
00001F24  0000              add [bx+si],al
00001F26  0000              add [bx+si],al
00001F28  0000              add [bx+si],al
00001F2A  0000              add [bx+si],al
00001F2C  0000              add [bx+si],al
00001F2E  0000              add [bx+si],al
00001F30  0000              add [bx+si],al
00001F32  0000              add [bx+si],al
00001F34  0000              add [bx+si],al
00001F36  0000              add [bx+si],al
00001F38  0000              add [bx+si],al
00001F3A  0000              add [bx+si],al
00001F3C  0000              add [bx+si],al
00001F3E  0000              add [bx+si],al
00001F40  0000              add [bx+si],al
00001F42  0000              add [bx+si],al
00001F44  0000              add [bx+si],al
00001F46  0000              add [bx+si],al
00001F48  0000              add [bx+si],al
00001F4A  0000              add [bx+si],al
00001F4C  0000              add [bx+si],al
00001F4E  0000              add [bx+si],al
00001F50  0000              add [bx+si],al
00001F52  0000              add [bx+si],al
00001F54  0000              add [bx+si],al
00001F56  0000              add [bx+si],al
00001F58  0000              add [bx+si],al
00001F5A  0000              add [bx+si],al
00001F5C  0000              add [bx+si],al
00001F5E  0000              add [bx+si],al
00001F60  0000              add [bx+si],al
00001F62  0000              add [bx+si],al
00001F64  0000              add [bx+si],al
00001F66  0000              add [bx+si],al
00001F68  0000              add [bx+si],al
00001F6A  0000              add [bx+si],al
00001F6C  0000              add [bx+si],al
00001F6E  0000              add [bx+si],al
00001F70  0000              add [bx+si],al
00001F72  0000              add [bx+si],al
00001F74  0000              add [bx+si],al
00001F76  0000              add [bx+si],al
00001F78  0000              add [bx+si],al
00001F7A  0000              add [bx+si],al
00001F7C  0000              add [bx+si],al
00001F7E  0000              add [bx+si],al
00001F80  0000              add [bx+si],al
00001F82  0000              add [bx+si],al
00001F84  0000              add [bx+si],al
00001F86  0000              add [bx+si],al
00001F88  0000              add [bx+si],al
00001F8A  0000              add [bx+si],al
00001F8C  0000              add [bx+si],al
00001F8E  0000              add [bx+si],al
00001F90  0000              add [bx+si],al
00001F92  0000              add [bx+si],al
00001F94  0000              add [bx+si],al
00001F96  0000              add [bx+si],al
00001F98  0000              add [bx+si],al
00001F9A  0000              add [bx+si],al
00001F9C  0000              add [bx+si],al
00001F9E  0000              add [bx+si],al
00001FA0  0000              add [bx+si],al
00001FA2  0000              add [bx+si],al
00001FA4  0000              add [bx+si],al
00001FA6  0000              add [bx+si],al
00001FA8  0000              add [bx+si],al
00001FAA  0000              add [bx+si],al
00001FAC  0000              add [bx+si],al
00001FAE  0000              add [bx+si],al
00001FB0  0000              add [bx+si],al
00001FB2  0000              add [bx+si],al
00001FB4  0000              add [bx+si],al
00001FB6  0000              add [bx+si],al
00001FB8  0000              add [bx+si],al
00001FBA  0000              add [bx+si],al
00001FBC  0000              add [bx+si],al
00001FBE  0000              add [bx+si],al
00001FC0  0000              add [bx+si],al
00001FC2  0000              add [bx+si],al
00001FC4  0000              add [bx+si],al
00001FC6  0000              add [bx+si],al
00001FC8  0000              add [bx+si],al
00001FCA  0000              add [bx+si],al
00001FCC  0000              add [bx+si],al
00001FCE  0000              add [bx+si],al
00001FD0  0000              add [bx+si],al
00001FD2  0000              add [bx+si],al
00001FD4  0000              add [bx+si],al
00001FD6  0000              add [bx+si],al
00001FD8  0000              add [bx+si],al
00001FDA  0000              add [bx+si],al
00001FDC  0000              add [bx+si],al
00001FDE  0000              add [bx+si],al
00001FE0  0000              add [bx+si],al
00001FE2  0000              add [bx+si],al
00001FE4  0000              add [bx+si],al
00001FE6  0000              add [bx+si],al
00001FE8  0000              add [bx+si],al
00001FEA  0000              add [bx+si],al
00001FEC  0000              add [bx+si],al
00001FEE  0000              add [bx+si],al
00001FF0  0000              add [bx+si],al
00001FF2  0000              add [bx+si],al
00001FF4  0000              add [bx+si],al
00001FF6  0000              add [bx+si],al
00001FF8  0000              add [bx+si],al
00001FFA  0000              add [bx+si],al
00001FFC  0000              add [bx+si],al
00001FFE  0000              add [bx+si],al
